Archive member included to satisfy reference by file (symbol)

../../mAbassi/Platform/lib\lib_mAbassi_EVAL_GCC_AR5_CY5.a(mAbassi_EVAL_A9_GCC_2_NR.o)
                              Shell.o (TSKgetID)
../../mAbassi/Platform/lib\lib_mAbassi_EVAL_GCC_AR5_CY5.a(mAbassi_EVAL_GCC_AR5_CY5_NR.o)
                              (__cs3_interrupt_vector_arm)
../../mAbassi/Platform/lib\lib_mAbassi_EVAL_GCC_AR5_CY5.a(ARMv7_SMP_L1_L2_GCC_AR5_CY5.o)
                              ../../mAbassi/Platform/lib\lib_mAbassi_EVAL_GCC_AR5_CY5.a(mAbassi_EVAL_GCC_AR5_CY5_NR.o) (COREcacheON)
c:/intelfpga/18.1/embedded/host_tools/mentor/gnu/arm/baremetal/bin/../lib/gcc/arm-altera-eabi/6.2.0/../../../../arm-altera-eabi/lib\libcs3.a(start_c.o)
                              (__cs3_start_c)
c:/intelfpga/18.1/embedded/host_tools/mentor/gnu/arm/baremetal/bin/../lib/gcc/arm-altera-eabi/6.2.0/../../../../arm-altera-eabi/lib\libcs3.a(cycloneV-dk-reset-ram.o)
                              (__cs3_reset_cycloneV_dk_ram)
c:/intelfpga/18.1/embedded/host_tools/mentor/gnu/arm/baremetal/bin/../lib/gcc/arm-altera-eabi/6.2.0/../../../../arm-altera-eabi/lib\libcs3unhosted.a(unhosted-start.o)
                              ../../mAbassi/Platform/lib\lib_mAbassi_EVAL_GCC_AR5_CY5.a(mAbassi_EVAL_GCC_AR5_CY5_NR.o) (_start)
c:/intelfpga/18.1/embedded/host_tools/mentor/gnu/arm/baremetal/bin/../lib/gcc/arm-altera-eabi/6.2.0/../../../../arm-altera-eabi/lib\libcs3arm.a(arm_isr_interrupt.o)
                              (__cs3_isr_reserved)
c:/intelfpga/18.1/embedded/host_tools/mentor/gnu/arm/baremetal/bin/../lib/gcc/arm-altera-eabi/6.2.0\libgcc.a(_udivsi3.o)
                              MyApp_MTL2.o (__aeabi_uidiv)
c:/intelfpga/18.1/embedded/host_tools/mentor/gnu/arm/baremetal/bin/../lib/gcc/arm-altera-eabi/6.2.0\libgcc.a(_divsi3.o)
                              arm_pl330.o (__aeabi_idiv)
c:/intelfpga/18.1/embedded/host_tools/mentor/gnu/arm/baremetal/bin/../lib/gcc/arm-altera-eabi/6.2.0\libgcc.a(_dvmd_tls.o)
                              c:/intelfpga/18.1/embedded/host_tools/mentor/gnu/arm/baremetal/bin/../lib/gcc/arm-altera-eabi/6.2.0\libgcc.a(_udivsi3.o) (__aeabi_idiv0)
c:/intelfpga/18.1/embedded/host_tools/mentor/gnu/arm/baremetal/bin/../lib/gcc/arm-altera-eabi/6.2.0\libgcc.a(_aeabi_ldivmod.o)
                              Media_FatFS.o (__aeabi_ldivmod)
c:/intelfpga/18.1/embedded/host_tools/mentor/gnu/arm/baremetal/bin/../lib/gcc/arm-altera-eabi/6.2.0\libgcc.a(_aeabi_uldivmod.o)
                              ff.o (__aeabi_uldivmod)
c:/intelfpga/18.1/embedded/host_tools/mentor/gnu/arm/baremetal/bin/../lib/gcc/arm-altera-eabi/6.2.0\libgcc.a(_udivmoddi4.o)
                              c:/intelfpga/18.1/embedded/host_tools/mentor/gnu/arm/baremetal/bin/../lib/gcc/arm-altera-eabi/6.2.0\libgcc.a(_aeabi_ldivmod.o) (__udivmoddi4)
c:/intelfpga/18.1/embedded/host_tools/mentor/gnu/arm/baremetal/bin/../lib/gcc/arm-altera-eabi/6.2.0\libgcc.a(_clzdi2.o)
                              c:/intelfpga/18.1/embedded/host_tools/mentor/gnu/arm/baremetal/bin/../lib/gcc/arm-altera-eabi/6.2.0\libgcc.a(_udivmoddi4.o) (__clzdi2)
c:/intelfpga/18.1/embedded/host_tools/mentor/gnu/arm/baremetal/bin/../lib/gcc/arm-altera-eabi/6.2.0\libgcc.a(_clzsi2.o)
                              c:/intelfpga/18.1/embedded/host_tools/mentor/gnu/arm/baremetal/bin/../lib/gcc/arm-altera-eabi/6.2.0\libgcc.a(_clzdi2.o) (__clzsi2)
c:/intelfpga/18.1/embedded/host_tools/mentor/gnu/arm/baremetal/bin/../lib/gcc/arm-altera-eabi/6.2.0/../../../../arm-altera-eabi/lib\libc.a(lib_a-calloc.o)
                              queue.o (calloc)
c:/intelfpga/18.1/embedded/host_tools/mentor/gnu/arm/baremetal/bin/../lib/gcc/arm-altera-eabi/6.2.0/../../../../arm-altera-eabi/lib\libc.a(lib_a-callocr.o)
                              c:/intelfpga/18.1/embedded/host_tools/mentor/gnu/arm/baremetal/bin/../lib/gcc/arm-altera-eabi/6.2.0/../../../../arm-altera-eabi/lib\libc.a(lib_a-calloc.o) (_calloc_r)
c:/intelfpga/18.1/embedded/host_tools/mentor/gnu/arm/baremetal/bin/../lib/gcc/arm-altera-eabi/6.2.0/../../../../arm-altera-eabi/lib\libc.a(lib_a-errno.o)
                              SysCall_CY5.o (__errno)
c:/intelfpga/18.1/embedded/host_tools/mentor/gnu/arm/baremetal/bin/../lib/gcc/arm-altera-eabi/6.2.0/../../../../arm-altera-eabi/lib\libc.a(lib_a-exit.o)
                              MyApp_MTL2.o (exit)
c:/intelfpga/18.1/embedded/host_tools/mentor/gnu/arm/baremetal/bin/../lib/gcc/arm-altera-eabi/6.2.0/../../../../arm-altera-eabi/lib\libc.a(lib_a-fclose.o)
                              MyApp_MTL2.o (fclose)
c:/intelfpga/18.1/embedded/host_tools/mentor/gnu/arm/baremetal/bin/../lib/gcc/arm-altera-eabi/6.2.0/../../../../arm-altera-eabi/lib\libc.a(lib_a-fflush.o)
                              c:/intelfpga/18.1/embedded/host_tools/mentor/gnu/arm/baremetal/bin/../lib/gcc/arm-altera-eabi/6.2.0/../../../../arm-altera-eabi/lib\libc.a(lib_a-fclose.o) (__sflush_r)
c:/intelfpga/18.1/embedded/host_tools/mentor/gnu/arm/baremetal/bin/../lib/gcc/arm-altera-eabi/6.2.0/../../../../arm-altera-eabi/lib\libc.a(lib_a-findfp.o)
                              c:/intelfpga/18.1/embedded/host_tools/mentor/gnu/arm/baremetal/bin/../lib/gcc/arm-altera-eabi/6.2.0/../../../../arm-altera-eabi/lib\libc.a(lib_a-fclose.o) (__sinit)
c:/intelfpga/18.1/embedded/host_tools/mentor/gnu/arm/baremetal/bin/../lib/gcc/arm-altera-eabi/6.2.0/../../../../arm-altera-eabi/lib\libc.a(lib_a-fopen.o)
                              MyApp_MTL2.o (fopen)
c:/intelfpga/18.1/embedded/host_tools/mentor/gnu/arm/baremetal/bin/../lib/gcc/arm-altera-eabi/6.2.0/../../../../arm-altera-eabi/lib\libc.a(lib_a-fprintf.o)
                              MyApp_MTL2.o (fprintf)
c:/intelfpga/18.1/embedded/host_tools/mentor/gnu/arm/baremetal/bin/../lib/gcc/arm-altera-eabi/6.2.0/../../../../arm-altera-eabi/lib\libc.a(lib_a-fread.o)
                              MyApp_MTL2.o (fread)
c:/intelfpga/18.1/embedded/host_tools/mentor/gnu/arm/baremetal/bin/../lib/gcc/arm-altera-eabi/6.2.0/../../../../arm-altera-eabi/lib\libc.a(lib_a-freer.o)
                              c:/intelfpga/18.1/embedded/host_tools/mentor/gnu/arm/baremetal/bin/../lib/gcc/arm-altera-eabi/6.2.0/../../../../arm-altera-eabi/lib\libc.a(lib_a-fclose.o) (_free_r)
c:/intelfpga/18.1/embedded/host_tools/mentor/gnu/arm/baremetal/bin/../lib/gcc/arm-altera-eabi/6.2.0/../../../../arm-altera-eabi/lib\libc.a(lib_a-fscanf.o)
                              MyApp_MTL2.o (fscanf)
c:/intelfpga/18.1/embedded/host_tools/mentor/gnu/arm/baremetal/bin/../lib/gcc/arm-altera-eabi/6.2.0/../../../../arm-altera-eabi/lib\libc.a(lib_a-fseek.o)
                              c:/intelfpga/18.1/embedded/host_tools/mentor/gnu/arm/baremetal/bin/../lib/gcc/arm-altera-eabi/6.2.0/../../../../arm-altera-eabi/lib\libc.a(lib_a-fopen.o) (_fseek_r)
c:/intelfpga/18.1/embedded/host_tools/mentor/gnu/arm/baremetal/bin/../lib/gcc/arm-altera-eabi/6.2.0/../../../../arm-altera-eabi/lib\libc.a(lib_a-fseeko.o)
                              c:/intelfpga/18.1/embedded/host_tools/mentor/gnu/arm/baremetal/bin/../lib/gcc/arm-altera-eabi/6.2.0/../../../../arm-altera-eabi/lib\libc.a(lib_a-fseek.o) (_fseeko_r)
c:/intelfpga/18.1/embedded/host_tools/mentor/gnu/arm/baremetal/bin/../lib/gcc/arm-altera-eabi/6.2.0/../../../../arm-altera-eabi/lib\libc.a(lib_a-ftell.o)
                              MyApp_MTL2.o (ftell)
c:/intelfpga/18.1/embedded/host_tools/mentor/gnu/arm/baremetal/bin/../lib/gcc/arm-altera-eabi/6.2.0/../../../../arm-altera-eabi/lib\libc.a(lib_a-ftello.o)
                              c:/intelfpga/18.1/embedded/host_tools/mentor/gnu/arm/baremetal/bin/../lib/gcc/arm-altera-eabi/6.2.0/../../../../arm-altera-eabi/lib\libc.a(lib_a-ftell.o) (_ftello_r)
c:/intelfpga/18.1/embedded/host_tools/mentor/gnu/arm/baremetal/bin/../lib/gcc/arm-altera-eabi/6.2.0/../../../../arm-altera-eabi/lib\libc.a(lib_a-fwalk.o)
                              c:/intelfpga/18.1/embedded/host_tools/mentor/gnu/arm/baremetal/bin/../lib/gcc/arm-altera-eabi/6.2.0/../../../../arm-altera-eabi/lib\libc.a(lib_a-findfp.o) (_fwalk)
c:/intelfpga/18.1/embedded/host_tools/mentor/gnu/arm/baremetal/bin/../lib/gcc/arm-altera-eabi/6.2.0/../../../../arm-altera-eabi/lib\libc.a(lib_a-fwrite.o)
                              MyApp_MTL2.o (fwrite)
c:/intelfpga/18.1/embedded/host_tools/mentor/gnu/arm/baremetal/bin/../lib/gcc/arm-altera-eabi/6.2.0/../../../../arm-altera-eabi/lib\libc.a(lib_a-getreent.o)
                              Main_mAbassi.o (__getreent)
c:/intelfpga/18.1/embedded/host_tools/mentor/gnu/arm/baremetal/bin/../lib/gcc/arm-altera-eabi/6.2.0/../../../../arm-altera-eabi/lib\libc.a(lib_a-impure.o)
                              c:/intelfpga/18.1/embedded/host_tools/mentor/gnu/arm/baremetal/bin/../lib/gcc/arm-altera-eabi/6.2.0/../../../../arm-altera-eabi/lib\libc.a(lib_a-exit.o) (_global_impure_ptr)
c:/intelfpga/18.1/embedded/host_tools/mentor/gnu/arm/baremetal/bin/../lib/gcc/arm-altera-eabi/6.2.0/../../../../arm-altera-eabi/lib\libc.a(lib_a-init.o)
                              c:/intelfpga/18.1/embedded/host_tools/mentor/gnu/arm/baremetal/bin/../lib/gcc/arm-altera-eabi/6.2.0/../../../../arm-altera-eabi/lib\libcs3.a(start_c.o) (__libc_init_array)
c:/intelfpga/18.1/embedded/host_tools/mentor/gnu/arm/baremetal/bin/../lib/gcc/arm-altera-eabi/6.2.0/../../../../arm-altera-eabi/lib\libc.a(lib_a-lcltime.o)
                              MyApp_MTL2.o (localtime)
c:/intelfpga/18.1/embedded/host_tools/mentor/gnu/arm/baremetal/bin/../lib/gcc/arm-altera-eabi/6.2.0/../../../../arm-altera-eabi/lib\libc.a(lib_a-lcltime_r.o)
                              c:/intelfpga/18.1/embedded/host_tools/mentor/gnu/arm/baremetal/bin/../lib/gcc/arm-altera-eabi/6.2.0/../../../../arm-altera-eabi/lib\libc.a(lib_a-lcltime.o) (localtime_r)
c:/intelfpga/18.1/embedded/host_tools/mentor/gnu/arm/baremetal/bin/../lib/gcc/arm-altera-eabi/6.2.0/../../../../arm-altera-eabi/lib\libc.a(lib_a-locale.o)
                              MyApp_MTL2.o (__locale_ctype_ptr)
c:/intelfpga/18.1/embedded/host_tools/mentor/gnu/arm/baremetal/bin/../lib/gcc/arm-altera-eabi/6.2.0/../../../../arm-altera-eabi/lib\libc.a(lib_a-makebuf.o)
                              c:/intelfpga/18.1/embedded/host_tools/mentor/gnu/arm/baremetal/bin/../lib/gcc/arm-altera-eabi/6.2.0/../../../../arm-altera-eabi/lib\libc.a(lib_a-fseeko.o) (__smakebuf_r)
c:/intelfpga/18.1/embedded/host_tools/mentor/gnu/arm/baremetal/bin/../lib/gcc/arm-altera-eabi/6.2.0/../../../../arm-altera-eabi/lib\libc.a(lib_a-malloc.o)
                              MyApp_MTL2.o (malloc)
c:/intelfpga/18.1/embedded/host_tools/mentor/gnu/arm/baremetal/bin/../lib/gcc/arm-altera-eabi/6.2.0/../../../../arm-altera-eabi/lib\libc.a(lib_a-mallocr.o)
                              c:/intelfpga/18.1/embedded/host_tools/mentor/gnu/arm/baremetal/bin/../lib/gcc/arm-altera-eabi/6.2.0/../../../../arm-altera-eabi/lib\libc.a(lib_a-callocr.o) (_malloc_r)
c:/intelfpga/18.1/embedded/host_tools/mentor/gnu/arm/baremetal/bin/../lib/gcc/arm-altera-eabi/6.2.0/../../../../arm-altera-eabi/lib\libc.a(lib_a-mbtowc_r.o)
                              c:/intelfpga/18.1/embedded/host_tools/mentor/gnu/arm/baremetal/bin/../lib/gcc/arm-altera-eabi/6.2.0/../../../../arm-altera-eabi/lib\libc.a(lib_a-locale.o) (__ascii_mbtowc)
c:/intelfpga/18.1/embedded/host_tools/mentor/gnu/arm/baremetal/bin/../lib/gcc/arm-altera-eabi/6.2.0/../../../../arm-altera-eabi/lib\libc.a(lib_a-memcpy-stub.o)
                              MyApp_MTL2.o (memcpy)
c:/intelfpga/18.1/embedded/host_tools/mentor/gnu/arm/baremetal/bin/../lib/gcc/arm-altera-eabi/6.2.0/../../../../arm-altera-eabi/lib\libc.a(lib_a-memmove.o)
                              MediaIF.o (memmove)
c:/intelfpga/18.1/embedded/host_tools/mentor/gnu/arm/baremetal/bin/../lib/gcc/arm-altera-eabi/6.2.0/../../../../arm-altera-eabi/lib\libc.a(lib_a-memset.o)
                              arm_pl330.o (memset)
c:/intelfpga/18.1/embedded/host_tools/mentor/gnu/arm/baremetal/bin/../lib/gcc/arm-altera-eabi/6.2.0/../../../../arm-altera-eabi/lib\libc.a(lib_a-mktime.o)
                              SysCall_CY5.o (mktime)
c:/intelfpga/18.1/embedded/host_tools/mentor/gnu/arm/baremetal/bin/../lib/gcc/arm-altera-eabi/6.2.0/../../../../arm-altera-eabi/lib\libc.a(lib_a-mlock.o)
                              c:/intelfpga/18.1/embedded/host_tools/mentor/gnu/arm/baremetal/bin/../lib/gcc/arm-altera-eabi/6.2.0/../../../../arm-altera-eabi/lib\libc.a(lib_a-freer.o) (__malloc_lock)
c:/intelfpga/18.1/embedded/host_tools/mentor/gnu/arm/baremetal/bin/../lib/gcc/arm-altera-eabi/6.2.0/../../../../arm-altera-eabi/lib\libc.a(lib_a-month_lengths.o)
                              c:/intelfpga/18.1/embedded/host_tools/mentor/gnu/arm/baremetal/bin/../lib/gcc/arm-altera-eabi/6.2.0/../../../../arm-altera-eabi/lib\libc.a(lib_a-lcltime_r.o) (__month_lengths)
c:/intelfpga/18.1/embedded/host_tools/mentor/gnu/arm/baremetal/bin/../lib/gcc/arm-altera-eabi/6.2.0/../../../../arm-altera-eabi/lib\libc.a(lib_a-printf.o)
                              MyApp_MTL2.o (printf)
c:/intelfpga/18.1/embedded/host_tools/mentor/gnu/arm/baremetal/bin/../lib/gcc/arm-altera-eabi/6.2.0/../../../../arm-altera-eabi/lib\libc.a(lib_a-putchar.o)
                              SubShell.o (putchar)
c:/intelfpga/18.1/embedded/host_tools/mentor/gnu/arm/baremetal/bin/../lib/gcc/arm-altera-eabi/6.2.0/../../../../arm-altera-eabi/lib\libc.a(lib_a-puts.o)
                              Main_mAbassi.o (puts)
c:/intelfpga/18.1/embedded/host_tools/mentor/gnu/arm/baremetal/bin/../lib/gcc/arm-altera-eabi/6.2.0/../../../../arm-altera-eabi/lib\libc.a(lib_a-rand.o)
                              MyApp_MTL2.o (srand)
c:/intelfpga/18.1/embedded/host_tools/mentor/gnu/arm/baremetal/bin/../lib/gcc/arm-altera-eabi/6.2.0/../../../../arm-altera-eabi/lib\libc.a(lib_a-refill.o)
                              c:/intelfpga/18.1/embedded/host_tools/mentor/gnu/arm/baremetal/bin/../lib/gcc/arm-altera-eabi/6.2.0/../../../../arm-altera-eabi/lib\libc.a(lib_a-fread.o) (__srefill_r)
c:/intelfpga/18.1/embedded/host_tools/mentor/gnu/arm/baremetal/bin/../lib/gcc/arm-altera-eabi/6.2.0/../../../../arm-altera-eabi/lib\libc.a(lib_a-rewind.o)
                              MyApp_MTL2.o (rewind)
c:/intelfpga/18.1/embedded/host_tools/mentor/gnu/arm/baremetal/bin/../lib/gcc/arm-altera-eabi/6.2.0/../../../../arm-altera-eabi/lib\libc.a(lib_a-rget.o)
                              MyApp_MTL2.o (__srget_r)
c:/intelfpga/18.1/embedded/host_tools/mentor/gnu/arm/baremetal/bin/../lib/gcc/arm-altera-eabi/6.2.0/../../../../arm-altera-eabi/lib\libc.a(lib_a-setvbuf.o)
                              Main_mAbassi.o (setvbuf)
c:/intelfpga/18.1/embedded/host_tools/mentor/gnu/arm/baremetal/bin/../lib/gcc/arm-altera-eabi/6.2.0/../../../../arm-altera-eabi/lib\libc.a(lib_a-sprintf.o)
                              gui_vpg.o (sprintf)
c:/intelfpga/18.1/embedded/host_tools/mentor/gnu/arm/baremetal/bin/../lib/gcc/arm-altera-eabi/6.2.0/../../../../arm-altera-eabi/lib\libc.a(lib_a-stdio.o)
                              c:/intelfpga/18.1/embedded/host_tools/mentor/gnu/arm/baremetal/bin/../lib/gcc/arm-altera-eabi/6.2.0/../../../../arm-altera-eabi/lib\libc.a(lib_a-findfp.o) (__sread)
c:/intelfpga/18.1/embedded/host_tools/mentor/gnu/arm/baremetal/bin/../lib/gcc/arm-altera-eabi/6.2.0/../../../../arm-altera-eabi/lib\libc.a(lib_a-stpcpy.o)
                              MyApp_MTL2.o (stpcpy)
c:/intelfpga/18.1/embedded/host_tools/mentor/gnu/arm/baremetal/bin/../lib/gcc/arm-altera-eabi/6.2.0/../../../../arm-altera-eabi/lib\libc.a(lib_a-strcasecmp.o)
                              SysCall_FatFS.o (strcasecmp)
c:/intelfpga/18.1/embedded/host_tools/mentor/gnu/arm/baremetal/bin/../lib/gcc/arm-altera-eabi/6.2.0/../../../../arm-altera-eabi/lib\libc.a(lib_a-strcmp.o)
                              SysCall_FatFS.o (strcmp)
c:/intelfpga/18.1/embedded/host_tools/mentor/gnu/arm/baremetal/bin/../lib/gcc/arm-altera-eabi/6.2.0/../../../../arm-altera-eabi/lib\libc.a(lib_a-strcpy.o)
                              MyApp_MTL2.o (strcpy)
c:/intelfpga/18.1/embedded/host_tools/mentor/gnu/arm/baremetal/bin/../lib/gcc/arm-altera-eabi/6.2.0/../../../../arm-altera-eabi/lib\libc.a(lib_a-strlen-stub.o)
                              SysCall_FatFS.o (strlen)
c:/intelfpga/18.1/embedded/host_tools/mentor/gnu/arm/baremetal/bin/../lib/gcc/arm-altera-eabi/6.2.0/../../../../arm-altera-eabi/lib\libc.a(lib_a-strncasecmp.o)
                              SysCall_FatFS.o (strncasecmp)
c:/intelfpga/18.1/embedded/host_tools/mentor/gnu/arm/baremetal/bin/../lib/gcc/arm-altera-eabi/6.2.0/../../../../arm-altera-eabi/lib\libc.a(lib_a-strncat.o)
                              SysCall_FatFS.o (strncat)
c:/intelfpga/18.1/embedded/host_tools/mentor/gnu/arm/baremetal/bin/../lib/gcc/arm-altera-eabi/6.2.0/../../../../arm-altera-eabi/lib\libc.a(lib_a-strncmp.o)
                              SysCall_FatFS.o (strncmp)
c:/intelfpga/18.1/embedded/host_tools/mentor/gnu/arm/baremetal/bin/../lib/gcc/arm-altera-eabi/6.2.0/../../../../arm-altera-eabi/lib\libc.a(lib_a-strncpy.o)
                              SysCall_FatFS.o (strncpy)
c:/intelfpga/18.1/embedded/host_tools/mentor/gnu/arm/baremetal/bin/../lib/gcc/arm-altera-eabi/6.2.0/../../../../arm-altera-eabi/lib\libc.a(lib_a-strrchr.o)
                              SysCall_FatFS.o (strrchr)
c:/intelfpga/18.1/embedded/host_tools/mentor/gnu/arm/baremetal/bin/../lib/gcc/arm-altera-eabi/6.2.0/../../../../arm-altera-eabi/lib\libc.a(lib_a-strstr.o)
                              SysCall_FatFS.o (strstr)
c:/intelfpga/18.1/embedded/host_tools/mentor/gnu/arm/baremetal/bin/../lib/gcc/arm-altera-eabi/6.2.0/../../../../arm-altera-eabi/lib\libc.a(lib_a-strtol.o)
                              SubShell.o (strtol)
c:/intelfpga/18.1/embedded/host_tools/mentor/gnu/arm/baremetal/bin/../lib/gcc/arm-altera-eabi/6.2.0/../../../../arm-altera-eabi/lib\libc.a(lib_a-strtoll.o)
                              Shell.o (strtoll)
c:/intelfpga/18.1/embedded/host_tools/mentor/gnu/arm/baremetal/bin/../lib/gcc/arm-altera-eabi/6.2.0/../../../../arm-altera-eabi/lib\libc.a(lib_a-strtoul.o)
                              Shell.o (strtoul)
c:/intelfpga/18.1/embedded/host_tools/mentor/gnu/arm/baremetal/bin/../lib/gcc/arm-altera-eabi/6.2.0/../../../../arm-altera-eabi/lib\libc.a(lib_a-strtoull.o)
                              Shell.o (strtoull)
c:/intelfpga/18.1/embedded/host_tools/mentor/gnu/arm/baremetal/bin/../lib/gcc/arm-altera-eabi/6.2.0/../../../../arm-altera-eabi/lib\libc.a(lib_a-svfprintf.o)
                              c:/intelfpga/18.1/embedded/host_tools/mentor/gnu/arm/baremetal/bin/../lib/gcc/arm-altera-eabi/6.2.0/../../../../arm-altera-eabi/lib\libc.a(lib_a-sprintf.o) (_svfprintf_r)
c:/intelfpga/18.1/embedded/host_tools/mentor/gnu/arm/baremetal/bin/../lib/gcc/arm-altera-eabi/6.2.0/../../../../arm-altera-eabi/lib\libc.a(lib_a-sysclose.o)
                              SysCall_FatFS.o (close)
c:/intelfpga/18.1/embedded/host_tools/mentor/gnu/arm/baremetal/bin/../lib/gcc/arm-altera-eabi/6.2.0/../../../../arm-altera-eabi/lib\libc.a(lib_a-sysstat.o)
                              MyApp_MTL2.o (stat)
c:/intelfpga/18.1/embedded/host_tools/mentor/gnu/arm/baremetal/bin/../lib/gcc/arm-altera-eabi/6.2.0/../../../../arm-altera-eabi/lib\libc.a(lib_a-tzcalc_limits.o)
                              c:/intelfpga/18.1/embedded/host_tools/mentor/gnu/arm/baremetal/bin/../lib/gcc/arm-altera-eabi/6.2.0/../../../../arm-altera-eabi/lib\libc.a(lib_a-lcltime_r.o) (__tzcalc_limits)
c:/intelfpga/18.1/embedded/host_tools/mentor/gnu/arm/baremetal/bin/../lib/gcc/arm-altera-eabi/6.2.0/../../../../arm-altera-eabi/lib\libc.a(lib_a-tzlock.o)
                              c:/intelfpga/18.1/embedded/host_tools/mentor/gnu/arm/baremetal/bin/../lib/gcc/arm-altera-eabi/6.2.0/../../../../arm-altera-eabi/lib\libc.a(lib_a-lcltime_r.o) (__tz_lock)
c:/intelfpga/18.1/embedded/host_tools/mentor/gnu/arm/baremetal/bin/../lib/gcc/arm-altera-eabi/6.2.0/../../../../arm-altera-eabi/lib\libc.a(lib_a-tzset.o)
                              c:/intelfpga/18.1/embedded/host_tools/mentor/gnu/arm/baremetal/bin/../lib/gcc/arm-altera-eabi/6.2.0/../../../../arm-altera-eabi/lib\libc.a(lib_a-lcltime_r.o) (_tzset_unlocked)
c:/intelfpga/18.1/embedded/host_tools/mentor/gnu/arm/baremetal/bin/../lib/gcc/arm-altera-eabi/6.2.0/../../../../arm-altera-eabi/lib\libc.a(lib_a-tzset_r.o)
                              c:/intelfpga/18.1/embedded/host_tools/mentor/gnu/arm/baremetal/bin/../lib/gcc/arm-altera-eabi/6.2.0/../../../../arm-altera-eabi/lib\libc.a(lib_a-tzset.o) (_tzset_unlocked_r)
c:/intelfpga/18.1/embedded/host_tools/mentor/gnu/arm/baremetal/bin/../lib/gcc/arm-altera-eabi/6.2.0/../../../../arm-altera-eabi/lib\libc.a(lib_a-tzvars.o)
                              c:/intelfpga/18.1/embedded/host_tools/mentor/gnu/arm/baremetal/bin/../lib/gcc/arm-altera-eabi/6.2.0/../../../../arm-altera-eabi/lib\libc.a(lib_a-tzset_r.o) (_timezone)
c:/intelfpga/18.1/embedded/host_tools/mentor/gnu/arm/baremetal/bin/../lib/gcc/arm-altera-eabi/6.2.0/../../../../arm-altera-eabi/lib\libc.a(lib_a-ungetc.o)
                              MyApp_MTL2.o (ungetc)
c:/intelfpga/18.1/embedded/host_tools/mentor/gnu/arm/baremetal/bin/../lib/gcc/arm-altera-eabi/6.2.0/../../../../arm-altera-eabi/lib\libc.a(lib_a-vfprintf.o)
                              c:/intelfpga/18.1/embedded/host_tools/mentor/gnu/arm/baremetal/bin/../lib/gcc/arm-altera-eabi/6.2.0/../../../../arm-altera-eabi/lib\libc.a(lib_a-fprintf.o) (_vfprintf_r)
c:/intelfpga/18.1/embedded/host_tools/mentor/gnu/arm/baremetal/bin/../lib/gcc/arm-altera-eabi/6.2.0/../../../../arm-altera-eabi/lib\libc.a(lib_a-vfscanf.o)
                              c:/intelfpga/18.1/embedded/host_tools/mentor/gnu/arm/baremetal/bin/../lib/gcc/arm-altera-eabi/6.2.0/../../../../arm-altera-eabi/lib\libc.a(lib_a-fscanf.o) (_vfscanf_r)
c:/intelfpga/18.1/embedded/host_tools/mentor/gnu/arm/baremetal/bin/../lib/gcc/arm-altera-eabi/6.2.0/../../../../arm-altera-eabi/lib\libc.a(lib_a-vsnprintf.o)
                              debug.o (vsnprintf)
c:/intelfpga/18.1/embedded/host_tools/mentor/gnu/arm/baremetal/bin/../lib/gcc/arm-altera-eabi/6.2.0/../../../../arm-altera-eabi/lib\libc.a(lib_a-wbuf.o)
                              MyApp_MTL2.o (__swbuf_r)
c:/intelfpga/18.1/embedded/host_tools/mentor/gnu/arm/baremetal/bin/../lib/gcc/arm-altera-eabi/6.2.0/../../../../arm-altera-eabi/lib\libc.a(lib_a-wctomb_r.o)
                              c:/intelfpga/18.1/embedded/host_tools/mentor/gnu/arm/baremetal/bin/../lib/gcc/arm-altera-eabi/6.2.0/../../../../arm-altera-eabi/lib\libc.a(lib_a-locale.o) (__ascii_wctomb)
c:/intelfpga/18.1/embedded/host_tools/mentor/gnu/arm/baremetal/bin/../lib/gcc/arm-altera-eabi/6.2.0/../../../../arm-altera-eabi/lib\libc.a(lib_a-wsetup.o)
                              c:/intelfpga/18.1/embedded/host_tools/mentor/gnu/arm/baremetal/bin/../lib/gcc/arm-altera-eabi/6.2.0/../../../../arm-altera-eabi/lib\libc.a(lib_a-vfprintf.o) (__swsetup_r)
c:/intelfpga/18.1/embedded/host_tools/mentor/gnu/arm/baremetal/bin/../lib/gcc/arm-altera-eabi/6.2.0/../../../../arm-altera-eabi/lib\libc.a(lib_a-__call_atexit.o)
                              c:/intelfpga/18.1/embedded/host_tools/mentor/gnu/arm/baremetal/bin/../lib/gcc/arm-altera-eabi/6.2.0/../../../../arm-altera-eabi/lib\libc.a(lib_a-exit.o) (__call_exitprocs)
c:/intelfpga/18.1/embedded/host_tools/mentor/gnu/arm/baremetal/bin/../lib/gcc/arm-altera-eabi/6.2.0/../../../../arm-altera-eabi/lib\libc.a(lib_a-atexit.o)
                              c:/intelfpga/18.1/embedded/host_tools/mentor/gnu/arm/baremetal/bin/../lib/gcc/arm-altera-eabi/6.2.0/../../../../arm-altera-eabi/lib\libc.a(lib_a-__call_atexit.o) (atexit)
c:/intelfpga/18.1/embedded/host_tools/mentor/gnu/arm/baremetal/bin/../lib/gcc/arm-altera-eabi/6.2.0/../../../../arm-altera-eabi/lib\libc.a(lib_a-ctype_.o)
                              c:/intelfpga/18.1/embedded/host_tools/mentor/gnu/arm/baremetal/bin/../lib/gcc/arm-altera-eabi/6.2.0/../../../../arm-altera-eabi/lib\libc.a(lib_a-locale.o) (_ctype_)
c:/intelfpga/18.1/embedded/host_tools/mentor/gnu/arm/baremetal/bin/../lib/gcc/arm-altera-eabi/6.2.0/../../../../arm-altera-eabi/lib\libc.a(lib_a-div.o)
                              c:/intelfpga/18.1/embedded/host_tools/mentor/gnu/arm/baremetal/bin/../lib/gcc/arm-altera-eabi/6.2.0/../../../../arm-altera-eabi/lib\libc.a(lib_a-mktime.o) (div)
c:/intelfpga/18.1/embedded/host_tools/mentor/gnu/arm/baremetal/bin/../lib/gcc/arm-altera-eabi/6.2.0/../../../../arm-altera-eabi/lib\libc.a(lib_a-dtoa.o)
                              c:/intelfpga/18.1/embedded/host_tools/mentor/gnu/arm/baremetal/bin/../lib/gcc/arm-altera-eabi/6.2.0/../../../../arm-altera-eabi/lib\libc.a(lib_a-svfprintf.o) (_dtoa_r)
c:/intelfpga/18.1/embedded/host_tools/mentor/gnu/arm/baremetal/bin/../lib/gcc/arm-altera-eabi/6.2.0/../../../../arm-altera-eabi/lib\libc.a(lib_a-fini.o)
                              c:/intelfpga/18.1/embedded/host_tools/mentor/gnu/arm/baremetal/bin/../lib/gcc/arm-altera-eabi/6.2.0/../../../../arm-altera-eabi/lib\libc.a(lib_a-__call_atexit.o) (__libc_fini_array)
c:/intelfpga/18.1/embedded/host_tools/mentor/gnu/arm/baremetal/bin/../lib/gcc/arm-altera-eabi/6.2.0/../../../../arm-altera-eabi/lib\libc.a(lib_a-flags.o)
                              c:/intelfpga/18.1/embedded/host_tools/mentor/gnu/arm/baremetal/bin/../lib/gcc/arm-altera-eabi/6.2.0/../../../../arm-altera-eabi/lib\libc.a(lib_a-fopen.o) (__sflags)
c:/intelfpga/18.1/embedded/host_tools/mentor/gnu/arm/baremetal/bin/../lib/gcc/arm-altera-eabi/6.2.0/../../../../arm-altera-eabi/lib\libc.a(lib_a-fvwrite.o)
                              c:/intelfpga/18.1/embedded/host_tools/mentor/gnu/arm/baremetal/bin/../lib/gcc/arm-altera-eabi/6.2.0/../../../../arm-altera-eabi/lib\libc.a(lib_a-fwrite.o) (__sfvwrite_r)
c:/intelfpga/18.1/embedded/host_tools/mentor/gnu/arm/baremetal/bin/../lib/gcc/arm-altera-eabi/6.2.0/../../../../arm-altera-eabi/lib\libc.a(lib_a-getenv_r.o)
                              c:/intelfpga/18.1/embedded/host_tools/mentor/gnu/arm/baremetal/bin/../lib/gcc/arm-altera-eabi/6.2.0/../../../../arm-altera-eabi/lib\libc.a(lib_a-tzset_r.o) (_getenv_r)
c:/intelfpga/18.1/embedded/host_tools/mentor/gnu/arm/baremetal/bin/../lib/gcc/arm-altera-eabi/6.2.0/../../../../arm-altera-eabi/lib\libc.a(lib_a-gettzinfo.o)
                              c:/intelfpga/18.1/embedded/host_tools/mentor/gnu/arm/baremetal/bin/../lib/gcc/arm-altera-eabi/6.2.0/../../../../arm-altera-eabi/lib\libc.a(lib_a-lcltime_r.o) (__gettzinfo)
c:/intelfpga/18.1/embedded/host_tools/mentor/gnu/arm/baremetal/bin/../lib/gcc/arm-altera-eabi/6.2.0/../../../../arm-altera-eabi/lib\libc.a(lib_a-gmtime_r.o)
                              c:/intelfpga/18.1/embedded/host_tools/mentor/gnu/arm/baremetal/bin/../lib/gcc/arm-altera-eabi/6.2.0/../../../../arm-altera-eabi/lib\libc.a(lib_a-lcltime_r.o) (gmtime_r)
c:/intelfpga/18.1/embedded/host_tools/mentor/gnu/arm/baremetal/bin/../lib/gcc/arm-altera-eabi/6.2.0/../../../../arm-altera-eabi/lib\libc.a(lib_a-iswspace.o)
                              c:/intelfpga/18.1/embedded/host_tools/mentor/gnu/arm/baremetal/bin/../lib/gcc/arm-altera-eabi/6.2.0/../../../../arm-altera-eabi/lib\libc.a(lib_a-vfscanf.o) (iswspace)
c:/intelfpga/18.1/embedded/host_tools/mentor/gnu/arm/baremetal/bin/../lib/gcc/arm-altera-eabi/6.2.0/../../../../arm-altera-eabi/lib\libc.a(lib_a-localeconv.o)
                              c:/intelfpga/18.1/embedded/host_tools/mentor/gnu/arm/baremetal/bin/../lib/gcc/arm-altera-eabi/6.2.0/../../../../arm-altera-eabi/lib\libc.a(lib_a-svfprintf.o) (_localeconv_r)
c:/intelfpga/18.1/embedded/host_tools/mentor/gnu/arm/baremetal/bin/../lib/gcc/arm-altera-eabi/6.2.0/../../../../arm-altera-eabi/lib\libc.a(lib_a-mbrtowc.o)
                              c:/intelfpga/18.1/embedded/host_tools/mentor/gnu/arm/baremetal/bin/../lib/gcc/arm-altera-eabi/6.2.0/../../../../arm-altera-eabi/lib\libc.a(lib_a-vfscanf.o) (_mbrtowc_r)
c:/intelfpga/18.1/embedded/host_tools/mentor/gnu/arm/baremetal/bin/../lib/gcc/arm-altera-eabi/6.2.0/../../../../arm-altera-eabi/lib\libc.a(lib_a-memchr-stub.o)
                              c:/intelfpga/18.1/embedded/host_tools/mentor/gnu/arm/baremetal/bin/../lib/gcc/arm-altera-eabi/6.2.0/../../../../arm-altera-eabi/lib\libc.a(lib_a-strstr.o) (memchr)
c:/intelfpga/18.1/embedded/host_tools/mentor/gnu/arm/baremetal/bin/../lib/gcc/arm-altera-eabi/6.2.0/../../../../arm-altera-eabi/lib\libc.a(lib_a-memcmp.o)
                              c:/intelfpga/18.1/embedded/host_tools/mentor/gnu/arm/baremetal/bin/../lib/gcc/arm-altera-eabi/6.2.0/../../../../arm-altera-eabi/lib\libc.a(lib_a-strstr.o) (memcmp)
c:/intelfpga/18.1/embedded/host_tools/mentor/gnu/arm/baremetal/bin/../lib/gcc/arm-altera-eabi/6.2.0/../../../../arm-altera-eabi/lib\libc.a(lib_a-mprec.o)
                              c:/intelfpga/18.1/embedded/host_tools/mentor/gnu/arm/baremetal/bin/../lib/gcc/arm-altera-eabi/6.2.0/../../../../arm-altera-eabi/lib\libc.a(lib_a-dtoa.o) (_Balloc)
c:/intelfpga/18.1/embedded/host_tools/mentor/gnu/arm/baremetal/bin/../lib/gcc/arm-altera-eabi/6.2.0/../../../../arm-altera-eabi/lib\libc.a(lib_a-putc.o)
                              c:/intelfpga/18.1/embedded/host_tools/mentor/gnu/arm/baremetal/bin/../lib/gcc/arm-altera-eabi/6.2.0/../../../../arm-altera-eabi/lib\libc.a(lib_a-putchar.o) (_putc_r)
c:/intelfpga/18.1/embedded/host_tools/mentor/gnu/arm/baremetal/bin/../lib/gcc/arm-altera-eabi/6.2.0/../../../../arm-altera-eabi/lib\libc.a(lib_a-reallocr.o)
                              c:/intelfpga/18.1/embedded/host_tools/mentor/gnu/arm/baremetal/bin/../lib/gcc/arm-altera-eabi/6.2.0/../../../../arm-altera-eabi/lib\libc.a(lib_a-ungetc.o) (_realloc_r)
c:/intelfpga/18.1/embedded/host_tools/mentor/gnu/arm/baremetal/bin/../lib/gcc/arm-altera-eabi/6.2.0/../../../../arm-altera-eabi/lib\libc.a(lib_a-sccl.o)
                              c:/intelfpga/18.1/embedded/host_tools/mentor/gnu/arm/baremetal/bin/../lib/gcc/arm-altera-eabi/6.2.0/../../../../arm-altera-eabi/lib\libc.a(lib_a-vfscanf.o) (__sccl)
c:/intelfpga/18.1/embedded/host_tools/mentor/gnu/arm/baremetal/bin/../lib/gcc/arm-altera-eabi/6.2.0/../../../../arm-altera-eabi/lib\libc.a(lib_a-sf_nan.o)
                              c:/intelfpga/18.1/embedded/host_tools/mentor/gnu/arm/baremetal/bin/../lib/gcc/arm-altera-eabi/6.2.0/../../../../arm-altera-eabi/lib\libc.a(lib_a-vfscanf.o) (nanf)
c:/intelfpga/18.1/embedded/host_tools/mentor/gnu/arm/baremetal/bin/../lib/gcc/arm-altera-eabi/6.2.0/../../../../arm-altera-eabi/lib\libc.a(lib_a-siscanf.o)
                              c:/intelfpga/18.1/embedded/host_tools/mentor/gnu/arm/baremetal/bin/../lib/gcc/arm-altera-eabi/6.2.0/../../../../arm-altera-eabi/lib\libc.a(lib_a-tzset_r.o) (siscanf)
c:/intelfpga/18.1/embedded/host_tools/mentor/gnu/arm/baremetal/bin/../lib/gcc/arm-altera-eabi/6.2.0/../../../../arm-altera-eabi/lib\libc.a(lib_a-strchr.o)
                              c:/intelfpga/18.1/embedded/host_tools/mentor/gnu/arm/baremetal/bin/../lib/gcc/arm-altera-eabi/6.2.0/../../../../arm-altera-eabi/lib\libc.a(lib_a-strrchr.o) (strchr)
c:/intelfpga/18.1/embedded/host_tools/mentor/gnu/arm/baremetal/bin/../lib/gcc/arm-altera-eabi/6.2.0/../../../../arm-altera-eabi/lib\libc.a(lib_a-strtod.o)
                              c:/intelfpga/18.1/embedded/host_tools/mentor/gnu/arm/baremetal/bin/../lib/gcc/arm-altera-eabi/6.2.0/../../../../arm-altera-eabi/lib\libc.a(lib_a-vfscanf.o) (_strtod_r)
c:/intelfpga/18.1/embedded/host_tools/mentor/gnu/arm/baremetal/bin/../lib/gcc/arm-altera-eabi/6.2.0/../../../../arm-altera-eabi/lib\libc.a(lib_a-svfiprintf.o)
                              c:/intelfpga/18.1/embedded/host_tools/mentor/gnu/arm/baremetal/bin/../lib/gcc/arm-altera-eabi/6.2.0/../../../../arm-altera-eabi/lib\libc.a(lib_a-svfprintf.o) (__ssprint_r)
c:/intelfpga/18.1/embedded/host_tools/mentor/gnu/arm/baremetal/bin/../lib/gcc/arm-altera-eabi/6.2.0/../../../../arm-altera-eabi/lib\libc.a(lib_a-svfiscanf.o)
                              c:/intelfpga/18.1/embedded/host_tools/mentor/gnu/arm/baremetal/bin/../lib/gcc/arm-altera-eabi/6.2.0/../../../../arm-altera-eabi/lib\libc.a(lib_a-siscanf.o) (__ssvfiscanf_r)
c:/intelfpga/18.1/embedded/host_tools/mentor/gnu/arm/baremetal/bin/../lib/gcc/arm-altera-eabi/6.2.0/../../../../arm-altera-eabi/lib\libc.a(lib_a-vfiprintf.o)
                              c:/intelfpga/18.1/embedded/host_tools/mentor/gnu/arm/baremetal/bin/../lib/gcc/arm-altera-eabi/6.2.0/../../../../arm-altera-eabi/lib\libc.a(lib_a-vfprintf.o) (__sprint_r)
c:/intelfpga/18.1/embedded/host_tools/mentor/gnu/arm/baremetal/bin/../lib/gcc/arm-altera-eabi/6.2.0/../../../../arm-altera-eabi/lib\libc.a(lib_a-__atexit.o)
                              c:/intelfpga/18.1/embedded/host_tools/mentor/gnu/arm/baremetal/bin/../lib/gcc/arm-altera-eabi/6.2.0/../../../../arm-altera-eabi/lib\libc.a(lib_a-atexit.o) (__register_exitproc)
c:/intelfpga/18.1/embedded/host_tools/mentor/gnu/arm/baremetal/bin/../lib/gcc/arm-altera-eabi/6.2.0/../../../../arm-altera-eabi/lib\libc.a(lib_a-environ.o)
                              c:/intelfpga/18.1/embedded/host_tools/mentor/gnu/arm/baremetal/bin/../lib/gcc/arm-altera-eabi/6.2.0/../../../../arm-altera-eabi/lib\libc.a(lib_a-getenv_r.o) (environ)
c:/intelfpga/18.1/embedded/host_tools/mentor/gnu/arm/baremetal/bin/../lib/gcc/arm-altera-eabi/6.2.0/../../../../arm-altera-eabi/lib\libc.a(lib_a-envlock.o)
                              c:/intelfpga/18.1/embedded/host_tools/mentor/gnu/arm/baremetal/bin/../lib/gcc/arm-altera-eabi/6.2.0/../../../../arm-altera-eabi/lib\libc.a(lib_a-getenv_r.o) (__env_lock)
c:/intelfpga/18.1/embedded/host_tools/mentor/gnu/arm/baremetal/bin/../lib/gcc/arm-altera-eabi/6.2.0/../../../../arm-altera-eabi/lib\libc.a(lib_a-fputwc.o)
                              c:/intelfpga/18.1/embedded/host_tools/mentor/gnu/arm/baremetal/bin/../lib/gcc/arm-altera-eabi/6.2.0/../../../../arm-altera-eabi/lib\libc.a(lib_a-vfiprintf.o) (_fputwc_r)
c:/intelfpga/18.1/embedded/host_tools/mentor/gnu/arm/baremetal/bin/../lib/gcc/arm-altera-eabi/6.2.0/../../../../arm-altera-eabi/lib\libc.a(lib_a-gdtoa-gethex.o)
                              c:/intelfpga/18.1/embedded/host_tools/mentor/gnu/arm/baremetal/bin/../lib/gcc/arm-altera-eabi/6.2.0/../../../../arm-altera-eabi/lib\libc.a(lib_a-strtod.o) (__gethex)
c:/intelfpga/18.1/embedded/host_tools/mentor/gnu/arm/baremetal/bin/../lib/gcc/arm-altera-eabi/6.2.0/../../../../arm-altera-eabi/lib\libc.a(lib_a-gdtoa-hexnan.o)
                              c:/intelfpga/18.1/embedded/host_tools/mentor/gnu/arm/baremetal/bin/../lib/gcc/arm-altera-eabi/6.2.0/../../../../arm-altera-eabi/lib\libc.a(lib_a-strtod.o) (__match)
c:/intelfpga/18.1/embedded/host_tools/mentor/gnu/arm/baremetal/bin/../lib/gcc/arm-altera-eabi/6.2.0/../../../../arm-altera-eabi/lib\libc.a(lib_a-wcrtomb.o)
                              c:/intelfpga/18.1/embedded/host_tools/mentor/gnu/arm/baremetal/bin/../lib/gcc/arm-altera-eabi/6.2.0/../../../../arm-altera-eabi/lib\libc.a(lib_a-fputwc.o) (_wcrtomb_r)
c:/intelfpga/18.1/embedded/host_tools/mentor/gnu/arm/baremetal/bin/../lib/gcc/arm-altera-eabi/6.2.0/../../../../arm-altera-eabi/lib\libm.a(lib_a-w_sqrt.o)
                              MyApp_MTL2.o (sqrt)
c:/intelfpga/18.1/embedded/host_tools/mentor/gnu/arm/baremetal/bin/../lib/gcc/arm-altera-eabi/6.2.0/../../../../arm-altera-eabi/lib\libm.a(lib_a-e_sqrt.o)
                              c:/intelfpga/18.1/embedded/host_tools/mentor/gnu/arm/baremetal/bin/../lib/gcc/arm-altera-eabi/6.2.0/../../../../arm-altera-eabi/lib\libm.a(lib_a-w_sqrt.o) (__ieee754_sqrt)
c:/intelfpga/18.1/embedded/host_tools/mentor/gnu/arm/baremetal/bin/../lib/gcc/arm-altera-eabi/6.2.0/../../../../arm-altera-eabi/lib\libm.a(lib_a-s_lib_ver.o)
                              c:/intelfpga/18.1/embedded/host_tools/mentor/gnu/arm/baremetal/bin/../lib/gcc/arm-altera-eabi/6.2.0/../../../../arm-altera-eabi/lib\libm.a(lib_a-w_sqrt.o) (__fdlib_version)
c:/intelfpga/18.1/embedded/host_tools/mentor/gnu/arm/baremetal/bin/../lib/gcc/arm-altera-eabi/6.2.0/../../../../arm-altera-eabi/lib\libm.a(lib_a-s_matherr.o)
                              c:/intelfpga/18.1/embedded/host_tools/mentor/gnu/arm/baremetal/bin/../lib/gcc/arm-altera-eabi/6.2.0/../../../../arm-altera-eabi/lib\libm.a(lib_a-w_sqrt.o) (matherr)
c:/intelfpga/18.1/embedded/host_tools/mentor/gnu/arm/baremetal/bin/../lib/gcc/arm-altera-eabi/6.2.0\libgcc.a(_arm_addsubdf3.o)
                              c:/intelfpga/18.1/embedded/host_tools/mentor/gnu/arm/baremetal/bin/../lib/gcc/arm-altera-eabi/6.2.0/../../../../arm-altera-eabi/lib\libc.a(lib_a-dtoa.o) (__aeabi_dsub)
c:/intelfpga/18.1/embedded/host_tools/mentor/gnu/arm/baremetal/bin/../lib/gcc/arm-altera-eabi/6.2.0\libgcc.a(_arm_muldivdf3.o)
                              c:/intelfpga/18.1/embedded/host_tools/mentor/gnu/arm/baremetal/bin/../lib/gcc/arm-altera-eabi/6.2.0/../../../../arm-altera-eabi/lib\libc.a(lib_a-dtoa.o) (__aeabi_dmul)
c:/intelfpga/18.1/embedded/host_tools/mentor/gnu/arm/baremetal/bin/../lib/gcc/arm-altera-eabi/6.2.0\libgcc.a(_arm_cmpdf2.o)
                              c:/intelfpga/18.1/embedded/host_tools/mentor/gnu/arm/baremetal/bin/../lib/gcc/arm-altera-eabi/6.2.0/../../../../arm-altera-eabi/lib\libc.a(lib_a-svfprintf.o) (__aeabi_dcmpeq)
c:/intelfpga/18.1/embedded/host_tools/mentor/gnu/arm/baremetal/bin/../lib/gcc/arm-altera-eabi/6.2.0\libgcc.a(_arm_unorddf2.o)
                              c:/intelfpga/18.1/embedded/host_tools/mentor/gnu/arm/baremetal/bin/../lib/gcc/arm-altera-eabi/6.2.0/../../../../arm-altera-eabi/lib\libc.a(lib_a-svfprintf.o) (__aeabi_dcmpun)
c:/intelfpga/18.1/embedded/host_tools/mentor/gnu/arm/baremetal/bin/../lib/gcc/arm-altera-eabi/6.2.0\libgcc.a(_arm_fixdfsi.o)
                              c:/intelfpga/18.1/embedded/host_tools/mentor/gnu/arm/baremetal/bin/../lib/gcc/arm-altera-eabi/6.2.0/../../../../arm-altera-eabi/lib\libc.a(lib_a-dtoa.o) (__aeabi_d2iz)
c:/intelfpga/18.1/embedded/host_tools/mentor/gnu/arm/baremetal/bin/../lib/gcc/arm-altera-eabi/6.2.0\libgcc.a(_arm_fixunsdfsi.o)
                              c:/intelfpga/18.1/embedded/host_tools/mentor/gnu/arm/baremetal/bin/../lib/gcc/arm-altera-eabi/6.2.0/../../../../arm-altera-eabi/lib\libc.a(lib_a-strtod.o) (__aeabi_d2uiz)
c:/intelfpga/18.1/embedded/host_tools/mentor/gnu/arm/baremetal/bin/../lib/gcc/arm-altera-eabi/6.2.0\libgcc.a(_arm_truncdfsf2.o)
                              c:/intelfpga/18.1/embedded/host_tools/mentor/gnu/arm/baremetal/bin/../lib/gcc/arm-altera-eabi/6.2.0/../../../../arm-altera-eabi/lib\libc.a(lib_a-vfscanf.o) (__aeabi_d2f)
c:/intelfpga/18.1/embedded/host_tools/mentor/gnu/arm/baremetal/bin/../lib/gcc/arm-altera-eabi/6.2.0\libgcc.a(_arm_cmpsf2.o)
                              c:/intelfpga/18.1/embedded/host_tools/mentor/gnu/arm/baremetal/bin/../lib/gcc/arm-altera-eabi/6.2.0/../../../../arm-altera-eabi/lib\libc.a(lib_a-strtod.o) (__aeabi_fcmpeq)
c:/intelfpga/18.1/embedded/host_tools/mentor/gnu/arm/baremetal/bin/../lib/gcc/arm-altera-eabi/6.2.0\libgcc.a(gthr-generic.o)
                              c:/intelfpga/18.1/embedded/host_tools/mentor/gnu/arm/baremetal/bin/../lib/gcc/arm-altera-eabi/6.2.0/../../../../arm-altera-eabi/lib\libc.a(lib_a-findfp.o) (__generic_gxx_recursive_mutex_init_function)

Discarded input sections

 .text          0x00000000        0x0 c:/intelfpga/18.1/embedded/host_tools/mentor/gnu/arm/baremetal/bin/../lib/gcc/arm-altera-eabi/6.2.0/crti.o
 .data          0x00000000        0x0 c:/intelfpga/18.1/embedded/host_tools/mentor/gnu/arm/baremetal/bin/../lib/gcc/arm-altera-eabi/6.2.0/crti.o
 .bss           0x00000000        0x0 c:/intelfpga/18.1/embedded/host_tools/mentor/gnu/arm/baremetal/bin/../lib/gcc/arm-altera-eabi/6.2.0/crti.o
 .data          0x00000000        0x4 c:/intelfpga/18.1/embedded/host_tools/mentor/gnu/arm/baremetal/bin/../lib/gcc/arm-altera-eabi/6.2.0/crtbegin.o
 .text          0x00000000        0x0 Main_mAbassi.o
 .data          0x00000000        0x0 Main_mAbassi.o
 .bss           0x00000000        0x0 Main_mAbassi.o
 .text          0x00000000        0x0 MyApp_MTL2.o
 .data          0x00000000        0x0 MyApp_MTL2.o
 .bss           0x00000000        0x0 MyApp_MTL2.o
 .text.Task_FPGA_Led
                0x00000000       0x48 MyApp_MTL2.o
 .text.button_ConfigureInterrupt
                0x00000000       0x44 MyApp_MTL2.o
 .text.spi_Nios_ConfigureInterrupt
                0x00000000       0x48 MyApp_MTL2.o
 .text.toogle_hps_led
                0x00000000       0x5c MyApp_MTL2.o
 .text.ImageCreate
                0x00000000       0x50 MyApp_MTL2.o
 .text.ImageWrite
                0x00000000       0x94 MyApp_MTL2.o
 .text.ImageWidth
                0x00000000        0x8 MyApp_MTL2.o
 .text.ImageHeight
                0x00000000        0x8 MyApp_MTL2.o
 .text.ImageClear
                0x00000000      0x2f0 MyApp_MTL2.o
 .text.ImageSetPixel
                0x00000000       0x24 MyApp_MTL2.o
 .text.ImageGetPixel
                0x00000000       0x1c MyApp_MTL2.o
 .bss.beatArray
                0x00000000     0x4e20 MyApp_MTL2.o
 .bss.countBeats
                0x00000000        0x4 MyApp_MTL2.o
 .bss.countOnes
                0x00000000        0x4 MyApp_MTL2.o
 .bss.myReader  0x00000000        0x4 MyApp_MTL2.o
 .rodata.ImageWrite.str1.4
                0x00000000       0x54 MyApp_MTL2.o
 .text          0x00000000        0x0 TIMERinit.o
 .data          0x00000000        0x0 TIMERinit.o
 .bss           0x00000000        0x0 TIMERinit.o
 .text          0x00000000        0x0 alt_gpio.o
 .data          0x00000000        0x0 alt_gpio.o
 .bss           0x00000000        0x0 alt_gpio.o
 .text.gpio_cfg
                0x00000000      0x1ec alt_gpio.o
 .text.gpio_dir
                0x00000000       0xc0 alt_gpio.o
 .text.gpio_get
                0x00000000       0x5c alt_gpio.o
 .text.gpio_set
                0x00000000       0x9c alt_gpio.o
 .text.GPIOintHndl_0
                0x00000000       0x3c alt_gpio.o
 .text.GPIOintHndl_1
                0x00000000       0x3c alt_gpio.o
 .text.GPIOintHndl_2
                0x00000000       0x3c alt_gpio.o
 .text          0x00000000        0x0 arm_acp.o
 .data          0x00000000        0x0 arm_acp.o
 .bss           0x00000000        0x0 arm_acp.o
 .text.acp_enable
                0x00000000      0x134 arm_acp.o
 .text          0x00000000        0x0 arm_pl330.o
 .data          0x00000000        0x0 arm_pl330.o
 .bss           0x00000000        0x0 arm_pl330.o
 .text.dma_event
                0x00000000       0xf8 arm_pl330.o
 .text.dma_pend_trig
                0x00000000      0x148 arm_pl330.o
 .text.dma_release
                0x00000000       0xd8 arm_pl330.o
 .text.dma_state
                0x00000000      0x1b0 arm_pl330.o
 .text.DMAintHndl
                0x00000000      0x1a0 arm_pl330.o
 .rodata.dma_state.str1.4
                0x00000000       0xf2 arm_pl330.o
 .text          0x00000000        0x0 dw_i2c.o
 .data          0x00000000        0x0 dw_i2c.o
 .bss           0x00000000        0x0 dw_i2c.o
 .text.I2CintHndl
                0x00000000      0x328 dw_i2c.o
 .text.i2c_send_recv
                0x00000000      0xe9c dw_i2c.o
 .text.i2c_test
                0x00000000      0x1c8 dw_i2c.o
 .text.I2CintHndl_0
                0x00000000        0x8 dw_i2c.o
 .text.I2CintHndl_1
                0x00000000        0x8 dw_i2c.o
 .text.I2CintHndl_2
                0x00000000        0x8 dw_i2c.o
 .text.I2CintHndl_3
                0x00000000        0x8 dw_i2c.o
 .text          0x00000000        0x0 dw_uart.o
 .data          0x00000000        0x0 dw_uart.o
 .bss           0x00000000        0x0 dw_uart.o
 .text          0x00000000        0x0 MediaIF.o
 .data          0x00000000        0x0 MediaIF.o
 .bss           0x00000000        0x0 MediaIF.o
 .text          0x00000000        0x0 SysCall_CY5.o
 .data          0x00000000        0x0 SysCall_CY5.o
 .bss           0x00000000        0x0 SysCall_CY5.o
 .text.time     0x00000000       0x30 SysCall_CY5.o
 .text._gettimeofday
                0x00000000        0x8 SysCall_CY5.o
 .text          0x00000000        0x0 dw_sdmmc.o
 .data          0x00000000        0x0 dw_sdmmc.o
 .bss           0x00000000        0x0 dw_sdmmc.o
 .text.mmc_sendcmd
                0x00000000      0x54c dw_sdmmc.o
 .text.mmc_present
                0x00000000       0x1c dw_sdmmc.o
 .text.mmc_nowrt
                0x00000000       0x18 dw_sdmmc.o
 .text.MMCintHndl
                0x00000000       0xa8 dw_sdmmc.o
 .text          0x00000000        0x0 ff.o
 .data          0x00000000        0x0 ff.o
 .bss           0x00000000        0x0 ff.o
 .text.pattern_matching
                0x00000000      0x158 ff.o
 .text.mem_cpy.part.0
                0x00000000      0x198 ff.o
 .text.dir_read
                0x00000000      0x76c ff.o
 .text.dir_remove
                0x00000000      0x264 ff.o
 .text.f_chdrive
                0x00000000       0x80 ff.o
 .text.f_chdir  0x00000000      0x1bc ff.o
 .text.f_getcwd
                0x00000000      0x4a4 ff.o
 .text.f_findnext
                0x00000000      0x114 ff.o
 .text.f_findfirst
                0x00000000      0x52c ff.o
 .text.f_getfree
                0x00000000      0x3a0 ff.o
 .text.f_unlink
                0x00000000      0x380 ff.o
 .text.f_mkdir  0x00000000      0x420 ff.o
 .text.f_rename
                0x00000000      0x61c ff.o
 .text.f_utime  0x00000000      0x170 ff.o
 .text.f_getlabel
                0x00000000      0x42c ff.o
 .text.f_setlabel
                0x00000000      0x434 ff.o
 .text.f_expand
                0x00000000      0x694 ff.o
 .text.f_mkfs   0x00000000     0x178c ff.o
 .text.f_gets   0x00000000      0x410 ff.o
 .text.f_putc   0x00000000      0x144 ff.o
 .text.f_puts   0x00000000      0x144 ff.o
 .text.f_printf
                0x00000000      0x97c ff.o
 .rodata.badchr.8430
                0x00000000       0x10 ff.o
 .rodata.f_mkfs.str1.4
                0x00000000       0x34 ff.o
 .text          0x00000000        0x0 ffunicode.o
 .data          0x00000000        0x0 ffunicode.o
 .bss           0x00000000        0x0 ffunicode.o
 .text          0x00000000        0x0 Abassi_FatFS.o
 .data          0x00000000        0x0 Abassi_FatFS.o
 .bss           0x00000000        0x0 Abassi_FatFS.o
 .text          0x00000000        0x0 Media_FatFS.o
 .data          0x00000000        0x0 Media_FatFS.o
 .bss           0x00000000        0x0 Media_FatFS.o
 .text.media_uninit_FatFS
                0x00000000       0x14 Media_FatFS.o
 .text.media_size_FatFS
                0x00000000       0x10 Media_FatFS.o
 .text.media_blksize_FatFS
                0x00000000        0x4 Media_FatFS.o
 .text.media_sectsize_FatFS
                0x00000000        0x8 Media_FatFS.o
 .text          0x00000000        0x0 SysCall_FatFS.o
 .data          0x00000000        0x0 SysCall_FatFS.o
 .bss           0x00000000        0x0 SysCall_FatFS.o
 .text._isatty  0x00000000       0x48 SysCall_FatFS.o
 .text._lseek   0x00000000      0x14c SysCall_FatFS.o
 .text._write   0x00000000      0x248 SysCall_FatFS.o
 .text._open    0x00000000       0x1c SysCall_FatFS.o
 .text._read    0x00000000       0x1c SysCall_FatFS.o
 .text._unlink_r
                0x00000000      0x258 SysCall_FatFS.o
 .text._unlink  0x00000000       0x14 SysCall_FatFS.o
 .text.dup      0x00000000      0x150 SysCall_FatFS.o
 .text.chdir    0x00000000      0x228 SysCall_FatFS.o
 .text._mkdir_r
                0x00000000      0x33c SysCall_FatFS.o
 .text._mkdir   0x00000000       0x18 SysCall_FatFS.o
 .text.mkdir    0x00000000       0x18 SysCall_FatFS.o
 .text._stat    0x00000000       0x18 SysCall_FatFS.o
 .text._fstat   0x00000000       0xdc SysCall_FatFS.o
 .text.fstatfs  0x00000000      0x1b8 SysCall_FatFS.o
 .text.statfs   0x00000000      0x220 SysCall_FatFS.o
 .text.chown    0x00000000        0x8 SysCall_FatFS.o
 .text.umask    0x00000000       0x30 SysCall_FatFS.o
 .text._rename_r
                0x00000000      0x718 SysCall_FatFS.o
 .text._rename  0x00000000       0x18 SysCall_FatFS.o
 .text._close   0x00000000      0x14c SysCall_FatFS.o
 .text.unmount  0x00000000      0x350 SysCall_FatFS.o
 .text.mkfs     0x00000000      0x244 SysCall_FatFS.o
 .text.telldir  0x00000000       0x28 SysCall_FatFS.o
 .text.seekdir  0x00000000       0xa8 SysCall_FatFS.o
 .text.rewinddir
                0x00000000       0x50 SysCall_FatFS.o
 .text.devctl   0x00000000      0x114 SysCall_FatFS.o
 .text.media_size
                0x00000000        0x4 SysCall_FatFS.o
 .text.media_blksize
                0x00000000        0x4 SysCall_FatFS.o
 .text.media_sectsize_size
                0x00000000       0x10 SysCall_FatFS.o
 .text          0x00000000        0x0 tahomabold_20.o
 .data          0x00000000        0x0 tahomabold_20.o
 .bss           0x00000000        0x0 tahomabold_20.o
 .data.tahomabold_20
                0x00000000      0xbc0 tahomabold_20.o
 .rodata.tahomabold_20_100
                0x00000000      0x152 tahomabold_20.o
 .rodata.tahomabold_20_101
                0x00000000      0x138 tahomabold_20.o
 .rodata.tahomabold_20_102
                0x00000000       0xd0 tahomabold_20.o
 .rodata.tahomabold_20_103
                0x00000000      0x152 tahomabold_20.o
 .rodata.tahomabold_20_104
                0x00000000      0x152 tahomabold_20.o
 .rodata.tahomabold_20_105
                0x00000000       0x9c tahomabold_20.o
 .rodata.tahomabold_20_106
                0x00000000       0xea tahomabold_20.o
 .rodata.tahomabold_20_107
                0x00000000      0x138 tahomabold_20.o
 .rodata.tahomabold_20_108
                0x00000000       0x9c tahomabold_20.o
 .rodata.tahomabold_20_109
                0x00000000      0x1ee tahomabold_20.o
 .rodata.tahomabold_20_110
                0x00000000      0x152 tahomabold_20.o
 .rodata.tahomabold_20_111
                0x00000000      0x138 tahomabold_20.o
 .rodata.tahomabold_20_112
                0x00000000      0x152 tahomabold_20.o
 .rodata.tahomabold_20_113
                0x00000000      0x152 tahomabold_20.o
 .rodata.tahomabold_20_114
                0x00000000       0xea tahomabold_20.o
 .rodata.tahomabold_20_115
                0x00000000      0x104 tahomabold_20.o
 .rodata.tahomabold_20_116
                0x00000000       0xd0 tahomabold_20.o
 .rodata.tahomabold_20_117
                0x00000000      0x152 tahomabold_20.o
 .rodata.tahomabold_20_118
                0x00000000      0x138 tahomabold_20.o
 .rodata.tahomabold_20_119
                0x00000000      0x1d4 tahomabold_20.o
 .rodata.tahomabold_20_120
                0x00000000      0x138 tahomabold_20.o
 .rodata.tahomabold_20_121
                0x00000000      0x138 tahomabold_20.o
 .rodata.tahomabold_20_122
                0x00000000      0x11e tahomabold_20.o
 .rodata.tahomabold_20_123
                0x00000000      0x138 tahomabold_20.o
 .rodata.tahomabold_20_124
                0x00000000      0x152 tahomabold_20.o
 .rodata.tahomabold_20_125
                0x00000000      0x138 tahomabold_20.o
 .rodata.tahomabold_20_126
                0x00000000      0x1a0 tahomabold_20.o
 .rodata.tahomabold_20_33
                0x00000000       0xb6 tahomabold_20.o
 .rodata.tahomabold_20_34
                0x00000000      0x104 tahomabold_20.o
 .rodata.tahomabold_20_35
                0x00000000      0x1a0 tahomabold_20.o
 .rodata.tahomabold_20_36
                0x00000000      0x152 tahomabold_20.o
 .rodata.tahomabold_20_37
                0x00000000      0x270 tahomabold_20.o
 .rodata.tahomabold_20_38
                0x00000000      0x1ba tahomabold_20.o
 .rodata.tahomabold_20_39
                0x00000000       0x9c tahomabold_20.o
 .rodata.tahomabold_20_40
                0x00000000       0xea tahomabold_20.o
 .rodata.tahomabold_20_41
                0x00000000       0xea tahomabold_20.o
 .rodata.tahomabold_20_42
                0x00000000      0x152 tahomabold_20.o
 .rodata.tahomabold_20_43
                0x00000000      0x1a0 tahomabold_20.o
 .rodata.tahomabold_20_44
                0x00000000       0x9c tahomabold_20.o
 .rodata.tahomabold_20_45
                0x00000000       0xea tahomabold_20.o
 .rodata.tahomabold_20_46
                0x00000000       0x9c tahomabold_20.o
 .rodata.tahomabold_20_47
                0x00000000      0x138 tahomabold_20.o
 .rodata.tahomabold_20_48
                0x00000000      0x152 tahomabold_20.o
 .rodata.tahomabold_20_49
                0x00000000      0x152 tahomabold_20.o
 .rodata.tahomabold_20_50
                0x00000000      0x152 tahomabold_20.o
 .rodata.tahomabold_20_51
                0x00000000      0x152 tahomabold_20.o
 .rodata.tahomabold_20_52
                0x00000000      0x152 tahomabold_20.o
 .rodata.tahomabold_20_53
                0x00000000      0x152 tahomabold_20.o
 .rodata.tahomabold_20_54
                0x00000000      0x152 tahomabold_20.o
 .rodata.tahomabold_20_55
                0x00000000      0x152 tahomabold_20.o
 .rodata.tahomabold_20_56
                0x00000000      0x152 tahomabold_20.o
 .rodata.tahomabold_20_57
                0x00000000      0x152 tahomabold_20.o
 .rodata.tahomabold_20_58
                0x00000000       0xb6 tahomabold_20.o
 .rodata.tahomabold_20_59
                0x00000000       0xb6 tahomabold_20.o
 .rodata.tahomabold_20_60
                0x00000000      0x1a0 tahomabold_20.o
 .rodata.tahomabold_20_61
                0x00000000      0x1a0 tahomabold_20.o
 .rodata.tahomabold_20_62
                0x00000000      0x1a0 tahomabold_20.o
 .rodata.tahomabold_20_63
                0x00000000      0x11e tahomabold_20.o
 .rodata.tahomabold_20_64
                0x00000000      0x1d4 tahomabold_20.o
 .rodata.tahomabold_20_65
                0x00000000      0x16c tahomabold_20.o
 .rodata.tahomabold_20_66
                0x00000000      0x16c tahomabold_20.o
 .rodata.tahomabold_20_67
                0x00000000      0x152 tahomabold_20.o
 .rodata.tahomabold_20_68
                0x00000000      0x186 tahomabold_20.o
 .rodata.tahomabold_20_69
                0x00000000      0x138 tahomabold_20.o
 .rodata.tahomabold_20_70
                0x00000000      0x138 tahomabold_20.o
 .rodata.tahomabold_20_71
                0x00000000      0x186 tahomabold_20.o
 .rodata.tahomabold_20_72
                0x00000000      0x186 tahomabold_20.o
 .rodata.tahomabold_20_73
                0x00000000      0x104 tahomabold_20.o
 .rodata.tahomabold_20_74
                0x00000000      0x104 tahomabold_20.o
 .rodata.tahomabold_20_75
                0x00000000      0x16c tahomabold_20.o
 .rodata.tahomabold_20_76
                0x00000000      0x11e tahomabold_20.o
 .rodata.tahomabold_20_77
                0x00000000      0x1d4 tahomabold_20.o
 .rodata.tahomabold_20_78
                0x00000000      0x186 tahomabold_20.o
 .rodata.tahomabold_20_79
                0x00000000      0x186 tahomabold_20.o
 .rodata.tahomabold_20_80
                0x00000000      0x152 tahomabold_20.o
 .rodata.tahomabold_20_81
                0x00000000      0x186 tahomabold_20.o
 .rodata.tahomabold_20_82
                0x00000000      0x186 tahomabold_20.o
 .rodata.tahomabold_20_83
                0x00000000      0x152 tahomabold_20.o
 .rodata.tahomabold_20_84
                0x00000000      0x138 tahomabold_20.o
 .rodata.tahomabold_20_85
                0x00000000      0x186 tahomabold_20.o
 .rodata.tahomabold_20_86
                0x00000000      0x16c tahomabold_20.o
 .rodata.tahomabold_20_87
                0x00000000      0x222 tahomabold_20.o
 .rodata.tahomabold_20_88
                0x00000000      0x16c tahomabold_20.o
 .rodata.tahomabold_20_89
                0x00000000      0x16c tahomabold_20.o
 .rodata.tahomabold_20_90
                0x00000000      0x138 tahomabold_20.o
 .rodata.tahomabold_20_91
                0x00000000       0xea tahomabold_20.o
 .rodata.tahomabold_20_92
                0x00000000      0x138 tahomabold_20.o
 .rodata.tahomabold_20_93
                0x00000000       0xea tahomabold_20.o
 .rodata.tahomabold_20_94
                0x00000000      0x1a0 tahomabold_20.o
 .rodata.tahomabold_20_95
                0x00000000      0x152 tahomabold_20.o
 .rodata.tahomabold_20_96
                0x00000000      0x11e tahomabold_20.o
 .rodata.tahomabold_20_97
                0x00000000      0x138 tahomabold_20.o
 .rodata.tahomabold_20_98
                0x00000000      0x152 tahomabold_20.o
 .rodata.tahomabold_20_99
                0x00000000      0x11e tahomabold_20.o
 .text          0x00000000        0x0 tahomabold_32.o
 .data          0x00000000        0x0 tahomabold_32.o
 .bss           0x00000000        0x0 tahomabold_32.o
 .data.tahomabold_32
                0x00000000      0xbc0 tahomabold_32.o
 .rodata.tahomabold_32_100
                0x00000000      0x320 tahomabold_32.o
 .rodata.tahomabold_32_101
                0x00000000      0x2f8 tahomabold_32.o
 .rodata.tahomabold_32_102
                0x00000000      0x230 tahomabold_32.o
 .rodata.tahomabold_32_103
                0x00000000      0x320 tahomabold_32.o
 .rodata.tahomabold_32_104
                0x00000000      0x320 tahomabold_32.o
 .rodata.tahomabold_32_105
                0x00000000      0x190 tahomabold_32.o
 .rodata.tahomabold_32_106
                0x00000000      0x208 tahomabold_32.o
 .rodata.tahomabold_32_107
                0x00000000      0x2f8 tahomabold_32.o
 .rodata.tahomabold_32_108
                0x00000000      0x190 tahomabold_32.o
 .rodata.tahomabold_32_109
                0x00000000      0x4d8 tahomabold_32.o
 .rodata.tahomabold_32_110
                0x00000000      0x320 tahomabold_32.o
 .rodata.tahomabold_32_111
                0x00000000      0x320 tahomabold_32.o
 .rodata.tahomabold_32_112
                0x00000000      0x320 tahomabold_32.o
 .rodata.tahomabold_32_113
                0x00000000      0x320 tahomabold_32.o
 .rodata.tahomabold_32_114
                0x00000000      0x230 tahomabold_32.o
 .rodata.tahomabold_32_115
                0x00000000      0x280 tahomabold_32.o
 .rodata.tahomabold_32_116
                0x00000000      0x208 tahomabold_32.o
 .rodata.tahomabold_32_117
                0x00000000      0x320 tahomabold_32.o
 .rodata.tahomabold_32_118
                0x00000000      0x2f8 tahomabold_32.o
 .rodata.tahomabold_32_119
                0x00000000      0x460 tahomabold_32.o
 .rodata.tahomabold_32_120
                0x00000000      0x2f8 tahomabold_32.o
 .rodata.tahomabold_32_121
                0x00000000      0x2d0 tahomabold_32.o
 .rodata.tahomabold_32_122
                0x00000000      0x2a8 tahomabold_32.o
 .rodata.tahomabold_32_123
                0x00000000      0x320 tahomabold_32.o
 .rodata.tahomabold_32_124
                0x00000000      0x320 tahomabold_32.o
 .rodata.tahomabold_32_125
                0x00000000      0x320 tahomabold_32.o
 .rodata.tahomabold_32_126
                0x00000000      0x410 tahomabold_32.o
 .rodata.tahomabold_32_33
                0x00000000      0x1b8 tahomabold_32.o
 .rodata.tahomabold_32_34
                0x00000000      0x280 tahomabold_32.o
 .rodata.tahomabold_32_35
                0x00000000      0x410 tahomabold_32.o
 .rodata.tahomabold_32_36
                0x00000000      0x320 tahomabold_32.o
 .rodata.tahomabold_32_37
                0x00000000      0x5f0 tahomabold_32.o
 .rodata.tahomabold_32_38
                0x00000000      0x410 tahomabold_32.o
 .rodata.tahomabold_32_39
                0x00000000      0x168 tahomabold_32.o
 .rodata.tahomabold_32_40
                0x00000000      0x258 tahomabold_32.o
 .rodata.tahomabold_32_41
                0x00000000      0x258 tahomabold_32.o
 .rodata.tahomabold_32_42
                0x00000000      0x320 tahomabold_32.o
 .rodata.tahomabold_32_43
                0x00000000      0x410 tahomabold_32.o
 .rodata.tahomabold_32_44
                0x00000000      0x190 tahomabold_32.o
 .rodata.tahomabold_32_45
                0x00000000      0x230 tahomabold_32.o
 .rodata.tahomabold_32_46
                0x00000000      0x190 tahomabold_32.o
 .rodata.tahomabold_32_47
                0x00000000      0x2d0 tahomabold_32.o
 .rodata.tahomabold_32_48
                0x00000000      0x320 tahomabold_32.o
 .rodata.tahomabold_32_49
                0x00000000      0x320 tahomabold_32.o
 .rodata.tahomabold_32_50
                0x00000000      0x320 tahomabold_32.o
 .rodata.tahomabold_32_51
                0x00000000      0x320 tahomabold_32.o
 .rodata.tahomabold_32_52
                0x00000000      0x320 tahomabold_32.o
 .rodata.tahomabold_32_53
                0x00000000      0x320 tahomabold_32.o
 .rodata.tahomabold_32_54
                0x00000000      0x320 tahomabold_32.o
 .rodata.tahomabold_32_55
                0x00000000      0x320 tahomabold_32.o
 .rodata.tahomabold_32_56
                0x00000000      0x320 tahomabold_32.o
 .rodata.tahomabold_32_57
                0x00000000      0x320 tahomabold_32.o
 .rodata.tahomabold_32_58
                0x00000000      0x1e0 tahomabold_32.o
 .rodata.tahomabold_32_59
                0x00000000      0x1e0 tahomabold_32.o
 .rodata.tahomabold_32_60
                0x00000000      0x410 tahomabold_32.o
 .rodata.tahomabold_32_61
                0x00000000      0x410 tahomabold_32.o
 .rodata.tahomabold_32_62
                0x00000000      0x410 tahomabold_32.o
 .rodata.tahomabold_32_63
                0x00000000      0x2d0 tahomabold_32.o
 .rodata.tahomabold_32_64
                0x00000000      0x488 tahomabold_32.o
 .rodata.tahomabold_32_65
                0x00000000      0x370 tahomabold_32.o
 .rodata.tahomabold_32_66
                0x00000000      0x370 tahomabold_32.o
 .rodata.tahomabold_32_67
                0x00000000      0x348 tahomabold_32.o
 .rodata.tahomabold_32_68
                0x00000000      0x3c0 tahomabold_32.o
 .rodata.tahomabold_32_69
                0x00000000      0x320 tahomabold_32.o
 .rodata.tahomabold_32_70
                0x00000000      0x2f8 tahomabold_32.o
 .rodata.tahomabold_32_71
                0x00000000      0x3c0 tahomabold_32.o
 .rodata.tahomabold_32_72
                0x00000000      0x3c0 tahomabold_32.o
 .rodata.tahomabold_32_73
                0x00000000      0x258 tahomabold_32.o
 .rodata.tahomabold_32_74
                0x00000000      0x280 tahomabold_32.o
 .rodata.tahomabold_32_75
                0x00000000      0x398 tahomabold_32.o
 .rodata.tahomabold_32_76
                0x00000000      0x2d0 tahomabold_32.o
 .rodata.tahomabold_32_77
                0x00000000      0x488 tahomabold_32.o
 .rodata.tahomabold_32_78
                0x00000000      0x3e8 tahomabold_32.o
 .rodata.tahomabold_32_79
                0x00000000      0x3e8 tahomabold_32.o
 .rodata.tahomabold_32_80
                0x00000000      0x348 tahomabold_32.o
 .rodata.tahomabold_32_81
                0x00000000      0x3e8 tahomabold_32.o
 .rodata.tahomabold_32_82
                0x00000000      0x3c0 tahomabold_32.o
 .rodata.tahomabold_32_83
                0x00000000      0x320 tahomabold_32.o
 .rodata.tahomabold_32_84
                0x00000000      0x320 tahomabold_32.o
 .rodata.tahomabold_32_85
                0x00000000      0x3c0 tahomabold_32.o
 .rodata.tahomabold_32_86
                0x00000000      0x370 tahomabold_32.o
 .rodata.tahomabold_32_87
                0x00000000      0x528 tahomabold_32.o
 .rodata.tahomabold_32_88
                0x00000000      0x370 tahomabold_32.o
 .rodata.tahomabold_32_89
                0x00000000      0x370 tahomabold_32.o
 .rodata.tahomabold_32_90
                0x00000000      0x320 tahomabold_32.o
 .rodata.tahomabold_32_91
                0x00000000      0x258 tahomabold_32.o
 .rodata.tahomabold_32_92
                0x00000000      0x2d0 tahomabold_32.o
 .rodata.tahomabold_32_93
                0x00000000      0x258 tahomabold_32.o
 .rodata.tahomabold_32_94
                0x00000000      0x410 tahomabold_32.o
 .rodata.tahomabold_32_95
                0x00000000      0x320 tahomabold_32.o
 .rodata.tahomabold_32_96
                0x00000000      0x2a8 tahomabold_32.o
 .rodata.tahomabold_32_97
                0x00000000      0x2f8 tahomabold_32.o
 .rodata.tahomabold_32_98
                0x00000000      0x320 tahomabold_32.o
 .rodata.tahomabold_32_99
                0x00000000      0x2a8 tahomabold_32.o
 .text          0x00000000        0x0 geometry.o
 .data          0x00000000        0x0 geometry.o
 .bss           0x00000000        0x0 geometry.o
 .text.RectWidth
                0x00000000        0xc geometry.o
 .text.RectHeight
                0x00000000       0x10 geometry.o
 .text.PtDistance
                0x00000000       0x58 geometry.o
 .text.PtCopy   0x00000000        0xc geometry.o
 .text          0x00000000        0x0 gesture.o
 .data          0x00000000        0x0 gesture.o
 .bss           0x00000000        0x0 gesture.o
 .rodata.gesture_bmp
                0x00000000    0x448f0 gesture.o
 .text          0x00000000        0x0 gui_vpg.o
 .data          0x00000000        0x0 gui_vpg.o
 .bss           0x00000000        0x0 gui_vpg.o
 .text.ShowInfo
                0x00000000       0x38 gui_vpg.o
 .text.VPG_XLine
                0x00000000       0xa4 gui_vpg.o
 .text.VPG_ColorPanel
                0x00000000      0x134 gui_vpg.o
 .text.VPG_Grid
                0x00000000       0xcc gui_vpg.o
 .text.VPG_VGrid
                0x00000000       0xb8 gui_vpg.o
 .text.VPG_HGrid
                0x00000000      0x140 gui_vpg.o
 .text.VPG_ColorBar
                0x00000000      0x158 gui_vpg.o
 .text.GUI_ShowPAT
                0x00000000      0xcb4 gui_vpg.o
 .text.GUI_VPG  0x00000000      0xd90 gui_vpg.o
 .rodata.VPG_ColorPanel.str1.4
                0x00000000        0xd gui_vpg.o
 .rodata.VPG_Grid.str1.4
                0x00000000        0x7 gui_vpg.o
 .rodata.VPG_HGrid.str1.4
                0x00000000        0x8 gui_vpg.o
 .rodata.VPG_VGrid.str1.4
                0x00000000        0x8 gui_vpg.o
 .rodata.VPG_XLine.str1.4
                0x00000000        0x7 gui_vpg.o
 .text          0x00000000        0x0 gui.o
 .data          0x00000000        0x0 gui.o
 .bss           0x00000000        0x0 gui.o
 .text.GUI_CheckButton
                0x00000000       0x58 gui.o
 .text.GUI_DeskDraw
                0x00000000      0x318 gui.o
 .text.IsContinuedPoint
                0x00000000       0x48 gui.o
 .text.GUI_ShowGesture
                0x00000000      0x1b8 gui.o
 .text.GUI_TraceGesture
                0x00000000        0x4 gui.o
 .text.GUI_ClearPaintArea
                0x00000000       0x78 gui.o
 .text.setup_GUI
                0x00000000       0xa4 gui.o
 .text.GUI_ShowInfo
                0x00000000       0x44 gui.o
 .text.GUI_ShowTouchPoint
                0x00000000       0x38 gui.o
 .text.GUI_SetDirection
                0x00000000       0x34 gui.o
 .rodata.GUI_DeskDraw.str1.4
                0x00000000       0x2e gui.o
 .text          0x00000000        0x0 vip_fr.o
 .data          0x00000000        0x0 vip_fr.o
 .bss           0x00000000        0x0 vip_fr.o
 .text.VIPFR_UnInit
                0x00000000        0xc vip_fr.o
 .text.VIPFR_SetFrameSize
                0x00000000       0x54 vip_fr.o
 .text.DRAW_EraseScreen
                0x00000000       0x34 vip_fr.o
 .text.FrameReader_SetFrame0
                0x00000000       0x2c vip_fr.o
 .text.FrameReader_SetFrame1
                0x00000000       0x2c vip_fr.o
 .text.FrameReader_SelectFrame
                0x00000000        0x8 vip_fr.o
 .text.FrameReader_Go
                0x00000000        0x8 vip_fr.o
 .text.VIPFR_ReserveBackground
                0x00000000       0x3c vip_fr.o
 .text          0x00000000        0x0 simple_graphics.o
 .data          0x00000000        0x0 simple_graphics.o
 .bss           0x00000000        0x0 simple_graphics.o
 .text.vid_scroll_string_quit
                0x00000000       0x1c simple_graphics.o
 .text.vid_scroll_string_init
                0x00000000       0xb8 simple_graphics.o
 .text.vid_scroll_string
                0x00000000        0x8 simple_graphics.o
 .text.vid_move_block
                0x00000000      0x294 simple_graphics.o
 .text.vid_print_string
                0x00000000      0x208 simple_graphics.o
 .text.vid_print_char
                0x00000000      0x188 simple_graphics.o
 .text.vid_set_pixel
                0x00000000       0xa8 simple_graphics.o
 .text.vid_get_pixel
                0x00000000       0x34 simple_graphics.o
 .text.vid_merge_colors
                0x00000000       0x10 simple_graphics.o
 .text.vid_color_convert24_16
                0x00000000       0x24 simple_graphics.o
 .text.vid_color_convert16_24
                0x00000000       0x20 simple_graphics.o
 .text.vid_copy_line_to_frame_buffer
                0x00000000      0x370 simple_graphics.o
 .text.vid_draw_sloped_line
                0x00000000      0x2d8 simple_graphics.o
 .text.vid_draw_line
                0x00000000       0x60 simple_graphics.o
 .text.vid_draw_box
                0x00000000      0x128 simple_graphics.o
 .text.vid_draw_round_corner_box
                0x00000000      0xc34 simple_graphics.o
 .text.vid_round_corner_points
                0x00000000      0xe00 simple_graphics.o
 .text.max3     0x00000000       0x14 simple_graphics.o
 .text.min3     0x00000000       0x14 simple_graphics.o
 .text.max_diff3
                0x00000000       0x28 simple_graphics.o
 .text.vid_put_pixel_in_span_map
                0x00000000       0x48 simple_graphics.o
 .text.vid_bres_scan_edges
                0x00000000      0x15c simple_graphics.o
 .text.vid_draw_triangle
                0x00000000      0x2b0 simple_graphics.o
 .text.CopyImage16
                0x00000000       0x4c simple_graphics.o
 .text.CropImage16
                0x00000000       0x68 simple_graphics.o
 .data.cour10_font
                0x00000000        0x4 simple_graphics.o
 .data.cour10_font_array
                0x00000000      0x415 simple_graphics.o
 .text          0x00000000        0x0 simple_text.o
 .data          0x00000000        0x0 simple_text.o
 .bss           0x00000000        0x0 simple_text.o
 .text.seperate_color_channels
                0x00000000       0x8c simple_text.o
 .text.merge_color_channels
                0x00000000       0x68 simple_text.o
 .text.read_from_frame
                0x00000000      0x10c simple_text.o
 .text.alpha_blending
                0x00000000      0x248 simple_text.o
 .text.vid_print_char_alpha
                0x00000000      0x330 simple_text.o
 .text.vid_print_string_alpha
                0x00000000      0x118 simple_text.o
 .text.vid_string_pixel_length_alpha
                0x00000000       0x58 simple_text.o
 .text          0x00000000        0x0 debug.o
 .data          0x00000000        0x0 debug.o
 .bss           0x00000000        0x0 debug.o
 .text.debug_output
                0x00000000        0x4 debug.o
 .text.myprintf
                0x00000000       0x48 debug.o
 .text.myprintf_hexarray
                0x00000000       0x4c debug.o
 .text.myprintf_dwordarray
                0x00000000      0x154 debug.o
 .rodata.myprintf_dwordarray.str1.4
                0x00000000        0x7 debug.o
 .rodata.myprintf_hexarray.str1.4
                0x00000000        0x7 debug.o
 .text          0x00000000        0x0 I2C_core.o
 .data          0x00000000        0x0 I2C_core.o
 .bss           0x00000000        0x0 I2C_core.o
 .text.Write32_Data
                0x00000000       0x10 I2C_core.o
 .text.Read32_Data
                0x00000000       0x10 I2C_core.o
 .text.ACK_single_check
                0x00000000       0x3c I2C_core.o
 .text.ACK_check
                0x00000000       0x50 I2C_core.o
 .text.OC_I2C_Write
                0x00000000      0x150 I2C_core.o
 .text.ACK_judge_for_read
                0x00000000       0x20 I2C_core.o
 .text.OC_I2CL_Write
                0x00000000      0x16c I2C_core.o
 .text.OC_I2CL_Read
                0x00000000      0x178 I2C_core.o
 .rodata.OC_I2C_Write.str1.4
                0x00000000       0x47 I2C_core.o
 .text          0x00000000        0x0 I2C.o
 .data          0x00000000        0x0 I2C.o
 .bss           0x00000000        0x0 I2C.o
 .text.my_wait  0x00000000        0x4 I2C.o
 .text.I2C_Write
                0x00000000      0x314 I2C.o
 .text.I2C_Write16
                0x00000000      0x3e4 I2C.o
 .text.I2C_Read
                0x00000000      0x3d8 I2C.o
 .text.I2C_Read16
                0x00000000      0x494 I2C.o
 .text.I2C_MultipleRead
                0x00000000      0x40c I2C.o
 .text.i2c_start
                0x00000000       0x44 I2C.o
 .text.i2c_stop
                0x00000000       0x40 I2C.o
 .text.i2c_write
                0x00000000       0xdc I2C.o
 .text.i2c_read
                0x00000000       0xb8 I2C.o
 .text.I2CL_Write
                0x00000000      0x3e8 I2C.o
 .text.I2CL_Read
                0x00000000      0x4dc I2C.o
 .text.I2CL_MultipleRead
                0x00000000      0x4dc I2C.o
 .text.I2CL_MultipleWrite
                0x00000000      0x41c I2C.o
 .text.I2CL_Read16
                0x00000000      0x518 I2C.o
 .text.I2CL_Write16
                0x00000000      0x424 I2C.o
 .rodata.I2CL_MultipleRead.str1.4
                0x00000000       0x29 I2C.o
 .rodata.I2CL_Write.str1.4
                0x00000000       0x4f I2C.o
 .rodata.I2C_MultipleRead.str1.4
                0x00000000       0x83 I2C.o
 .rodata.I2C_Read.str1.4
                0x00000000       0x6b I2C.o
 .rodata.I2C_Read16.str1.4
                0x00000000       0x22 I2C.o
 .rodata.I2C_Write.str1.4
                0x00000000       0x62 I2C.o
 .text          0x00000000        0x0 multi_touch2.o
 .data          0x00000000        0x0 multi_touch2.o
 .bss           0x00000000        0x0 multi_touch2.o
 .text.MTC2_UnInit
                0x00000000       0x20 multi_touch2.o
 .text.MTC2_ClearEvent
                0x00000000        0x8 multi_touch2.o
 .text          0x00000000        0x0 queue.o
 .data          0x00000000        0x0 queue.o
 .bss           0x00000000        0x0 queue.o
 .text.QUEUE_Delete
                0x00000000        0x4 queue.o
 .text.QUEUE_Empty
                0x00000000       0x10 queue.o
 .text          0x00000000        0x0 alt_generalpurpose_io.o
 .data          0x00000000        0x0 alt_generalpurpose_io.o
 .bss           0x00000000        0x0 alt_generalpurpose_io.o
 .text.alt_gpio_uninit
                0x00000000       0x1c alt_generalpurpose_io.o
 .text.alt_gpio_port_datadir_set
                0x00000000       0x70 alt_generalpurpose_io.o
 .text.alt_gpio_port_datadir_get
                0x00000000       0x48 alt_generalpurpose_io.o
 .text.alt_gpio_port_data_read
                0x00000000       0x48 alt_generalpurpose_io.o
 .text.alt_gpio_port_int_type_set
                0x00000000       0x70 alt_generalpurpose_io.o
 .text.alt_gpio_port_int_type_get
                0x00000000       0x48 alt_generalpurpose_io.o
 .text.alt_gpio_port_int_pol_set
                0x00000000       0x70 alt_generalpurpose_io.o
 .text.alt_gpio_port_int_pol_get
                0x00000000       0x48 alt_generalpurpose_io.o
 .text.alt_gpio_port_debounce_set
                0x00000000       0x70 alt_generalpurpose_io.o
 .text.alt_gpio_port_debounce_get
                0x00000000       0x48 alt_generalpurpose_io.o
 .text.alt_gpio_port_sync_set
                0x00000000       0x54 alt_generalpurpose_io.o
 .text.alt_gpio_port_sync_get
                0x00000000       0x50 alt_generalpurpose_io.o
 .text.alt_gpio_port_config
                0x00000000      0x20c alt_generalpurpose_io.o
 .text.alt_gpio_port_int_enable
                0x00000000       0x64 alt_generalpurpose_io.o
 .text.alt_gpio_port_int_disable
                0x00000000       0x64 alt_generalpurpose_io.o
 .text.alt_gpio_port_int_enable_get
                0x00000000       0x48 alt_generalpurpose_io.o
 .text.alt_gpio_port_int_mask_set
                0x00000000       0x70 alt_generalpurpose_io.o
 .text.alt_gpio_port_int_mask_get
                0x00000000       0x48 alt_generalpurpose_io.o
 .text.alt_gpio_port_int_status_get
                0x00000000       0x48 alt_generalpurpose_io.o
 .text.alt_gpio_port_int_status_clear
                0x00000000       0x5c alt_generalpurpose_io.o
 .text.alt_gpio_port_idcode_get
                0x00000000       0x48 alt_generalpurpose_io.o
 .text.alt_gpio_port_ver_get
                0x00000000       0x48 alt_generalpurpose_io.o
 .text.alt_gpio_bit_config
                0x00000000      0x258 alt_generalpurpose_io.o
 .text.alt_gpio_bitconfig_get
                0x00000000      0x180 alt_generalpurpose_io.o
 .text.alt_gpio_group_config_get
                0x00000000      0x1d8 alt_generalpurpose_io.o
 .text.alt_gpio_group_config_get2
                0x00000000      0x21c alt_generalpurpose_io.o
 .text.alt_gpio_port_pin_to_bit
                0x00000000       0x50 alt_generalpurpose_io.o
 .text          0x00000000        0x0 alt_globaltmr.o
 .data          0x00000000        0x0 alt_globaltmr.o
 .bss           0x00000000        0x0 alt_globaltmr.o
 .text.alt_globaltmr_is_running
                0x00000000       0x10 alt_globaltmr.o
 .text.alt_globaltmr_uninit
                0x00000000       0x30 alt_globaltmr.o
 .text.alt_globaltmr_stop
                0x00000000       0x18 alt_globaltmr.o
 .text.alt_globaltmr_get
                0x00000000       0x80 alt_globaltmr.o
 .text.alt_globaltmr_counter_get_low32
                0x00000000        0xc alt_globaltmr.o
 .text.alt_globaltmr_counter_get_hi32
                0x00000000        0xc alt_globaltmr.o
 .text.alt_globaltmr_comp_set
                0x00000000       0x3c alt_globaltmr.o
 .text.alt_globaltmr_comp_set64
                0x00000000       0x3c alt_globaltmr.o
 .text.alt_globaltmr_comp_get
                0x00000000       0x34 alt_globaltmr.o
 .text.alt_globaltmr_comp_get64
                0x00000000       0x24 alt_globaltmr.o
 .text.alt_globaltmr_remain_get
                0x00000000       0x78 alt_globaltmr.o
 .text.alt_globaltmr_comp_mode_start
                0x00000000       0x18 alt_globaltmr.o
 .text.alt_globaltmr_comp_mode_stop
                0x00000000       0x18 alt_globaltmr.o
 .text.alt_globaltmr_is_comp_mode
                0x00000000       0x10 alt_globaltmr.o
 .text.alt_globaltmr_prescaler_set
                0x00000000       0x28 alt_globaltmr.o
 .text.alt_globaltmr_autoinc_set
                0x00000000       0x34 alt_globaltmr.o
 .text.alt_globaltmr_autoinc_get
                0x00000000        0xc alt_globaltmr.o
 .text.alt_globaltmr_autoinc_mode_start
                0x00000000       0x18 alt_globaltmr.o
 .text.alt_globaltmr_autoinc_mode_stop
                0x00000000       0x18 alt_globaltmr.o
 .text.alt_globaltmr_is_autoinc_mode
                0x00000000       0x10 alt_globaltmr.o
 .text.alt_globaltmr_maxcounter_get
                0x00000000        0x8 alt_globaltmr.o
 .text.alt_globaltmr_int_disable
                0x00000000       0x18 alt_globaltmr.o
 .text.alt_globaltmr_int_enable
                0x00000000       0x30 alt_globaltmr.o
 .text.alt_globaltmr_int_is_enabled
                0x00000000       0x10 alt_globaltmr.o
 .text.alt_globaltmr_int_clear_pending
                0x00000000       0x14 alt_globaltmr.o
 .text.alt_globaltmr_int_is_pending
                0x00000000       0x10 alt_globaltmr.o
 .text.alt_globaltmr_int_if_pending_clear
                0x00000000       0x20 alt_globaltmr.o
 .text          0x00000000        0x0 alt_clock_manager.o
 .data          0x00000000        0x0 alt_clock_manager.o
 .bss           0x00000000        0x0 alt_clock_manager.o
 .text.alt_clk_plls_settle_wait
                0x00000000       0x38 alt_clock_manager.o
 .text.alt_clk_lock_status_clear
                0x00000000       0x24 alt_clock_manager.o
 .text.alt_clk_lock_status_get
                0x00000000       0x14 alt_clock_manager.o
 .text.alt_clk_pll_is_locked
                0x00000000       0x54 alt_clock_manager.o
 .text.alt_clk_safe_mode_clear
                0x00000000       0x6c alt_clock_manager.o
 .text.alt_clk_is_in_safe_mode
                0x00000000       0x50 alt_clock_manager.o
 .text.alt_clk_pll_bypass_disable
                0x00000000      0x2f4 alt_clock_manager.o
 .text.alt_clk_pll_bypass_enable
                0x00000000      0x1e0 alt_clock_manager.o
 .text.alt_clk_pll_is_bypassed
                0x00000000       0x88 alt_clock_manager.o
 .text.alt_clk_pll_source_get
                0x00000000       0x88 alt_clock_manager.o
 .text.alt_clk_clock_disable
                0x00000000      0x3d4 alt_clock_manager.o
 .text.alt_clk_clock_enable
                0x00000000      0x420 alt_clock_manager.o
 .text.alt_clk_is_enabled
                0x00000000      0x36c alt_clock_manager.o
 .text.alt_clk_source_get
                0x00000000      0x788 alt_clock_manager.o
 .text.alt_clk_source_set
                0x00000000      0x2b4 alt_clock_manager.o
 .text.alt_clk_ext_clk_freq_set
                0x00000000       0xe4 alt_clock_manager.o
 .text.alt_clk_ext_clk_freq_get
                0x00000000       0x6c alt_clock_manager.o
 .text.alt_clk_pll_cfg_get
                0x00000000      0x240 alt_clock_manager.o
 .text.alt_clk_pll_cfg_set
                0x00000000      0x294 alt_clock_manager.o
 .text.alt_clk_pll_vco_cfg_get
                0x00000000       0x90 alt_clock_manager.o
 .text.alt_clk_pll_vco_cfg_set
                0x00000000      0x68c alt_clock_manager.o
 .text.alt_clk_pll_guard_band_get
                0x00000000       0x54 alt_clock_manager.o
 .text.alt_clk_pll_guard_band_set
                0x00000000       0x88 alt_clock_manager.o
 .text.alt_clk_divider_set
                0x00000000     0x1bb4 alt_clock_manager.o
 .text.alt_clk_irq_disable
                0x00000000       0x24 alt_clock_manager.o
 .text.alt_clk_irq_enable
                0x00000000       0x24 alt_clock_manager.o
 .text.alt_clk_group_cfg_raw_get
                0x00000000      0x1a0 alt_clock_manager.o
 .text.alt_clk_group_cfg_raw_set
                0x00000000      0x250 alt_clock_manager.o
 .text.alt_clk_pll_cntr_maxfreq_recalc
                0x00000000     0x1f0c alt_clock_manager.o
 .text.alt_clk_clkmgr_reinit
                0x00000000      0x254 alt_clock_manager.o
 .text.alt_clk_clkmgr_uninit
                0x00000000        0x8 alt_clock_manager.o
 .data.alt_pll_cntr_maxfreq
                0x00000000       0x40 alt_clock_manager.o
 .text          0x00000000        0x0 mAbassiCfgA9.o
 .data          0x00000000        0x0 mAbassiCfgA9.o
 .bss           0x00000000        0x0 mAbassiCfgA9.o
 .text          0x00000000        0x0 Shell.o
 .data          0x00000000        0x0 Shell.o
 .bss           0x00000000        0x0 Shell.o
 .text.ShellRdWrt
                0x00000000        0x8 Shell.o
 .text          0x00000000        0x0 SubShell.o
 .data          0x00000000        0x0 SubShell.o
 .bss           0x00000000        0x0 SubShell.o
 .text.CmdSub2  0x00000000      0x2a0 SubShell.o
 .text.CmdSub1  0x00000000      0x1e4 SubShell.o
 .text.CmdHelp  0x00000000       0xa8 SubShell.o
 .text.SubShell
                0x00000000       0xb8 SubShell.o
 .data.SysVar   0x00000000        0x8 SubShell.o
 .data.SysVar.8089
                0x00000000        0x8 SubShell.o
 .rodata.CmdHelp.str1.4
                0x00000000       0x25 SubShell.o
 .rodata.CmdSub1.str1.4
                0x00000000      0x16e SubShell.o
 .rodata.CmdSub2.str1.4
                0x00000000      0x2c3 SubShell.o
 .rodata.SubShell.str1.4
                0x00000000        0xa SubShell.o
 .rodata.g_CommandLst
                0x00000000       0x20 SubShell.o
 .text          0x00000000        0x0 ../../mAbassi/Platform/lib\lib_mAbassi_EVAL_GCC_AR5_CY5.a(mAbassi_EVAL_A9_GCC_2_NR.o)
 .data          0x00000000        0x0 ../../mAbassi/Platform/lib\lib_mAbassi_EVAL_GCC_AR5_CY5.a(mAbassi_EVAL_A9_GCC_2_NR.o)
 .bss           0x00000000        0x0 ../../mAbassi/Platform/lib\lib_mAbassi_EVAL_GCC_AR5_CY5.a(mAbassi_EVAL_A9_GCC_2_NR.o)
 .text.TIMopen  0x00000000      0x11c ../../mAbassi/Platform/lib\lib_mAbassi_EVAL_GCC_AR5_CY5.a(mAbassi_EVAL_A9_GCC_2_NR.o)
 .text.MBLK__open
                0x00000000      0x198 ../../mAbassi/Platform/lib\lib_mAbassi_EVAL_GCC_AR5_CY5.a(mAbassi_EVAL_A9_GCC_2_NR.o)
 .text.MBLKalloc
                0x00000000       0x7c ../../mAbassi/Platform/lib\lib_mAbassi_EVAL_GCC_AR5_CY5.a(mAbassi_EVAL_A9_GCC_2_NR.o)
 .text.GroupAdd
                0x00000000       0xf8 ../../mAbassi/Platform/lib\lib_mAbassi_EVAL_GCC_AR5_CY5.a(mAbassi_EVAL_A9_GCC_2_NR.o)
 .text.GRPwait  0x00000000       0xa0 ../../mAbassi/Platform/lib\lib_mAbassi_EVAL_GCC_AR5_CY5.a(mAbassi_EVAL_A9_GCC_2_NR.o)
 .rodata.g_OSidleFct
                0x00000000        0x8 ../../mAbassi/Platform/lib\lib_mAbassi_EVAL_GCC_AR5_CY5.a(mAbassi_EVAL_A9_GCC_2_NR.o)
 .data          0x00000000        0x0 ../../mAbassi/Platform/lib\lib_mAbassi_EVAL_GCC_AR5_CY5.a(ARMv7_SMP_L1_L2_GCC_AR5_CY5.o)
 .data          0x00000000        0x0 c:/intelfpga/18.1/embedded/host_tools/mentor/gnu/arm/baremetal/bin/../lib/gcc/arm-altera-eabi/6.2.0/../../../../arm-altera-eabi/lib\libcs3.a(start_c.o)
 .bss           0x00000000        0x0 c:/intelfpga/18.1/embedded/host_tools/mentor/gnu/arm/baremetal/bin/../lib/gcc/arm-altera-eabi/6.2.0/../../../../arm-altera-eabi/lib\libcs3.a(start_c.o)
 .data          0x00000000        0x0 c:/intelfpga/18.1/embedded/host_tools/mentor/gnu/arm/baremetal/bin/../lib/gcc/arm-altera-eabi/6.2.0/../../../../arm-altera-eabi/lib\libcs3.a(cycloneV-dk-reset-ram.o)
 .bss           0x00000000        0x0 c:/intelfpga/18.1/embedded/host_tools/mentor/gnu/arm/baremetal/bin/../lib/gcc/arm-altera-eabi/6.2.0/../../../../arm-altera-eabi/lib\libcs3.a(cycloneV-dk-reset-ram.o)
 .text          0x00000000        0x0 c:/intelfpga/18.1/embedded/host_tools/mentor/gnu/arm/baremetal/bin/../lib/gcc/arm-altera-eabi/6.2.0/../../../../arm-altera-eabi/lib\libcs3unhosted.a(unhosted-start.o)
 .data          0x00000000        0x0 c:/intelfpga/18.1/embedded/host_tools/mentor/gnu/arm/baremetal/bin/../lib/gcc/arm-altera-eabi/6.2.0/../../../../arm-altera-eabi/lib\libcs3unhosted.a(unhosted-start.o)
 .bss           0x00000000        0x0 c:/intelfpga/18.1/embedded/host_tools/mentor/gnu/arm/baremetal/bin/../lib/gcc/arm-altera-eabi/6.2.0/../../../../arm-altera-eabi/lib\libcs3unhosted.a(unhosted-start.o)
 .data          0x00000000        0x0 c:/intelfpga/18.1/embedded/host_tools/mentor/gnu/arm/baremetal/bin/../lib/gcc/arm-altera-eabi/6.2.0/../../../../arm-altera-eabi/lib\libcs3arm.a(arm_isr_interrupt.o)
 .bss           0x00000000        0x0 c:/intelfpga/18.1/embedded/host_tools/mentor/gnu/arm/baremetal/bin/../lib/gcc/arm-altera-eabi/6.2.0/../../../../arm-altera-eabi/lib\libcs3arm.a(arm_isr_interrupt.o)
 .data          0x00000000        0x0 c:/intelfpga/18.1/embedded/host_tools/mentor/gnu/arm/baremetal/bin/../lib/gcc/arm-altera-eabi/6.2.0\libgcc.a(_udivsi3.o)
 .bss           0x00000000        0x0 c:/intelfpga/18.1/embedded/host_tools/mentor/gnu/arm/baremetal/bin/../lib/gcc/arm-altera-eabi/6.2.0\libgcc.a(_udivsi3.o)
 .data          0x00000000        0x0 c:/intelfpga/18.1/embedded/host_tools/mentor/gnu/arm/baremetal/bin/../lib/gcc/arm-altera-eabi/6.2.0\libgcc.a(_divsi3.o)
 .bss           0x00000000        0x0 c:/intelfpga/18.1/embedded/host_tools/mentor/gnu/arm/baremetal/bin/../lib/gcc/arm-altera-eabi/6.2.0\libgcc.a(_divsi3.o)
 .data          0x00000000        0x0 c:/intelfpga/18.1/embedded/host_tools/mentor/gnu/arm/baremetal/bin/../lib/gcc/arm-altera-eabi/6.2.0\libgcc.a(_dvmd_tls.o)
 .bss           0x00000000        0x0 c:/intelfpga/18.1/embedded/host_tools/mentor/gnu/arm/baremetal/bin/../lib/gcc/arm-altera-eabi/6.2.0\libgcc.a(_dvmd_tls.o)
 .data          0x00000000        0x0 c:/intelfpga/18.1/embedded/host_tools/mentor/gnu/arm/baremetal/bin/../lib/gcc/arm-altera-eabi/6.2.0\libgcc.a(_aeabi_ldivmod.o)
 .bss           0x00000000        0x0 c:/intelfpga/18.1/embedded/host_tools/mentor/gnu/arm/baremetal/bin/../lib/gcc/arm-altera-eabi/6.2.0\libgcc.a(_aeabi_ldivmod.o)
 .data          0x00000000        0x0 c:/intelfpga/18.1/embedded/host_tools/mentor/gnu/arm/baremetal/bin/../lib/gcc/arm-altera-eabi/6.2.0\libgcc.a(_aeabi_uldivmod.o)
 .bss           0x00000000        0x0 c:/intelfpga/18.1/embedded/host_tools/mentor/gnu/arm/baremetal/bin/../lib/gcc/arm-altera-eabi/6.2.0\libgcc.a(_aeabi_uldivmod.o)
 .data          0x00000000        0x0 c:/intelfpga/18.1/embedded/host_tools/mentor/gnu/arm/baremetal/bin/../lib/gcc/arm-altera-eabi/6.2.0\libgcc.a(_udivmoddi4.o)
 .bss           0x00000000        0x0 c:/intelfpga/18.1/embedded/host_tools/mentor/gnu/arm/baremetal/bin/../lib/gcc/arm-altera-eabi/6.2.0\libgcc.a(_udivmoddi4.o)
 .ARM.extab     0x00000000        0x0 c:/intelfpga/18.1/embedded/host_tools/mentor/gnu/arm/baremetal/bin/../lib/gcc/arm-altera-eabi/6.2.0\libgcc.a(_udivmoddi4.o)
 .data          0x00000000        0x0 c:/intelfpga/18.1/embedded/host_tools/mentor/gnu/arm/baremetal/bin/../lib/gcc/arm-altera-eabi/6.2.0\libgcc.a(_clzdi2.o)
 .bss           0x00000000        0x0 c:/intelfpga/18.1/embedded/host_tools/mentor/gnu/arm/baremetal/bin/../lib/gcc/arm-altera-eabi/6.2.0\libgcc.a(_clzdi2.o)
 .data          0x00000000        0x0 c:/intelfpga/18.1/embedded/host_tools/mentor/gnu/arm/baremetal/bin/../lib/gcc/arm-altera-eabi/6.2.0\libgcc.a(_clzsi2.o)
 .bss           0x00000000        0x0 c:/intelfpga/18.1/embedded/host_tools/mentor/gnu/arm/baremetal/bin/../lib/gcc/arm-altera-eabi/6.2.0\libgcc.a(_clzsi2.o)
 .data          0x00000000        0x0 c:/intelfpga/18.1/embedded/host_tools/mentor/gnu/arm/baremetal/bin/../lib/gcc/arm-altera-eabi/6.2.0/../../../../arm-altera-eabi/lib\libc.a(lib_a-calloc.o)
 .bss           0x00000000        0x0 c:/intelfpga/18.1/embedded/host_tools/mentor/gnu/arm/baremetal/bin/../lib/gcc/arm-altera-eabi/6.2.0/../../../../arm-altera-eabi/lib\libc.a(lib_a-calloc.o)
 .data          0x00000000        0x0 c:/intelfpga/18.1/embedded/host_tools/mentor/gnu/arm/baremetal/bin/../lib/gcc/arm-altera-eabi/6.2.0/../../../../arm-altera-eabi/lib\libc.a(lib_a-callocr.o)
 .bss           0x00000000        0x0 c:/intelfpga/18.1/embedded/host_tools/mentor/gnu/arm/baremetal/bin/../lib/gcc/arm-altera-eabi/6.2.0/../../../../arm-altera-eabi/lib\libc.a(lib_a-callocr.o)
 .data          0x00000000        0x0 c:/intelfpga/18.1/embedded/host_tools/mentor/gnu/arm/baremetal/bin/../lib/gcc/arm-altera-eabi/6.2.0/../../../../arm-altera-eabi/lib\libc.a(lib_a-errno.o)
 .bss           0x00000000        0x0 c:/intelfpga/18.1/embedded/host_tools/mentor/gnu/arm/baremetal/bin/../lib/gcc/arm-altera-eabi/6.2.0/../../../../arm-altera-eabi/lib\libc.a(lib_a-errno.o)
 .data          0x00000000        0x0 c:/intelfpga/18.1/embedded/host_tools/mentor/gnu/arm/baremetal/bin/../lib/gcc/arm-altera-eabi/6.2.0/../../../../arm-altera-eabi/lib\libc.a(lib_a-exit.o)
 .bss           0x00000000        0x0 c:/intelfpga/18.1/embedded/host_tools/mentor/gnu/arm/baremetal/bin/../lib/gcc/arm-altera-eabi/6.2.0/../../../../arm-altera-eabi/lib\libc.a(lib_a-exit.o)
 .data          0x00000000        0x0 c:/intelfpga/18.1/embedded/host_tools/mentor/gnu/arm/baremetal/bin/../lib/gcc/arm-altera-eabi/6.2.0/../../../../arm-altera-eabi/lib\libc.a(lib_a-fclose.o)
 .bss           0x00000000        0x0 c:/intelfpga/18.1/embedded/host_tools/mentor/gnu/arm/baremetal/bin/../lib/gcc/arm-altera-eabi/6.2.0/../../../../arm-altera-eabi/lib\libc.a(lib_a-fclose.o)
 .data          0x00000000        0x0 c:/intelfpga/18.1/embedded/host_tools/mentor/gnu/arm/baremetal/bin/../lib/gcc/arm-altera-eabi/6.2.0/../../../../arm-altera-eabi/lib\libc.a(lib_a-fflush.o)
 .bss           0x00000000        0x0 c:/intelfpga/18.1/embedded/host_tools/mentor/gnu/arm/baremetal/bin/../lib/gcc/arm-altera-eabi/6.2.0/../../../../arm-altera-eabi/lib\libc.a(lib_a-fflush.o)
 .data          0x00000000        0x0 c:/intelfpga/18.1/embedded/host_tools/mentor/gnu/arm/baremetal/bin/../lib/gcc/arm-altera-eabi/6.2.0/../../../../arm-altera-eabi/lib\libc.a(lib_a-findfp.o)
 .data          0x00000000        0x0 c:/intelfpga/18.1/embedded/host_tools/mentor/gnu/arm/baremetal/bin/../lib/gcc/arm-altera-eabi/6.2.0/../../../../arm-altera-eabi/lib\libc.a(lib_a-fopen.o)
 .bss           0x00000000        0x0 c:/intelfpga/18.1/embedded/host_tools/mentor/gnu/arm/baremetal/bin/../lib/gcc/arm-altera-eabi/6.2.0/../../../../arm-altera-eabi/lib\libc.a(lib_a-fopen.o)
 .data          0x00000000        0x0 c:/intelfpga/18.1/embedded/host_tools/mentor/gnu/arm/baremetal/bin/../lib/gcc/arm-altera-eabi/6.2.0/../../../../arm-altera-eabi/lib\libc.a(lib_a-fprintf.o)
 .bss           0x00000000        0x0 c:/intelfpga/18.1/embedded/host_tools/mentor/gnu/arm/baremetal/bin/../lib/gcc/arm-altera-eabi/6.2.0/../../../../arm-altera-eabi/lib\libc.a(lib_a-fprintf.o)
 .data          0x00000000        0x0 c:/intelfpga/18.1/embedded/host_tools/mentor/gnu/arm/baremetal/bin/../lib/gcc/arm-altera-eabi/6.2.0/../../../../arm-altera-eabi/lib\libc.a(lib_a-fread.o)
 .bss           0x00000000        0x0 c:/intelfpga/18.1/embedded/host_tools/mentor/gnu/arm/baremetal/bin/../lib/gcc/arm-altera-eabi/6.2.0/../../../../arm-altera-eabi/lib\libc.a(lib_a-fread.o)
 .data          0x00000000        0x0 c:/intelfpga/18.1/embedded/host_tools/mentor/gnu/arm/baremetal/bin/../lib/gcc/arm-altera-eabi/6.2.0/../../../../arm-altera-eabi/lib\libc.a(lib_a-freer.o)
 .bss           0x00000000        0x0 c:/intelfpga/18.1/embedded/host_tools/mentor/gnu/arm/baremetal/bin/../lib/gcc/arm-altera-eabi/6.2.0/../../../../arm-altera-eabi/lib\libc.a(lib_a-freer.o)
 .data          0x00000000        0x0 c:/intelfpga/18.1/embedded/host_tools/mentor/gnu/arm/baremetal/bin/../lib/gcc/arm-altera-eabi/6.2.0/../../../../arm-altera-eabi/lib\libc.a(lib_a-fscanf.o)
 .bss           0x00000000        0x0 c:/intelfpga/18.1/embedded/host_tools/mentor/gnu/arm/baremetal/bin/../lib/gcc/arm-altera-eabi/6.2.0/../../../../arm-altera-eabi/lib\libc.a(lib_a-fscanf.o)
 .data          0x00000000        0x0 c:/intelfpga/18.1/embedded/host_tools/mentor/gnu/arm/baremetal/bin/../lib/gcc/arm-altera-eabi/6.2.0/../../../../arm-altera-eabi/lib\libc.a(lib_a-fseek.o)
 .bss           0x00000000        0x0 c:/intelfpga/18.1/embedded/host_tools/mentor/gnu/arm/baremetal/bin/../lib/gcc/arm-altera-eabi/6.2.0/../../../../arm-altera-eabi/lib\libc.a(lib_a-fseek.o)
 .data          0x00000000        0x0 c:/intelfpga/18.1/embedded/host_tools/mentor/gnu/arm/baremetal/bin/../lib/gcc/arm-altera-eabi/6.2.0/../../../../arm-altera-eabi/lib\libc.a(lib_a-fseeko.o)
 .bss           0x00000000        0x0 c:/intelfpga/18.1/embedded/host_tools/mentor/gnu/arm/baremetal/bin/../lib/gcc/arm-altera-eabi/6.2.0/../../../../arm-altera-eabi/lib\libc.a(lib_a-fseeko.o)
 .data          0x00000000        0x0 c:/intelfpga/18.1/embedded/host_tools/mentor/gnu/arm/baremetal/bin/../lib/gcc/arm-altera-eabi/6.2.0/../../../../arm-altera-eabi/lib\libc.a(lib_a-ftell.o)
 .bss           0x00000000        0x0 c:/intelfpga/18.1/embedded/host_tools/mentor/gnu/arm/baremetal/bin/../lib/gcc/arm-altera-eabi/6.2.0/../../../../arm-altera-eabi/lib\libc.a(lib_a-ftell.o)
 .data          0x00000000        0x0 c:/intelfpga/18.1/embedded/host_tools/mentor/gnu/arm/baremetal/bin/../lib/gcc/arm-altera-eabi/6.2.0/../../../../arm-altera-eabi/lib\libc.a(lib_a-ftello.o)
 .bss           0x00000000        0x0 c:/intelfpga/18.1/embedded/host_tools/mentor/gnu/arm/baremetal/bin/../lib/gcc/arm-altera-eabi/6.2.0/../../../../arm-altera-eabi/lib\libc.a(lib_a-ftello.o)
 .data          0x00000000        0x0 c:/intelfpga/18.1/embedded/host_tools/mentor/gnu/arm/baremetal/bin/../lib/gcc/arm-altera-eabi/6.2.0/../../../../arm-altera-eabi/lib\libc.a(lib_a-fwalk.o)
 .bss           0x00000000        0x0 c:/intelfpga/18.1/embedded/host_tools/mentor/gnu/arm/baremetal/bin/../lib/gcc/arm-altera-eabi/6.2.0/../../../../arm-altera-eabi/lib\libc.a(lib_a-fwalk.o)
 .text          0x00000000      0x164 c:/intelfpga/18.1/embedded/host_tools/mentor/gnu/arm/baremetal/bin/../lib/gcc/arm-altera-eabi/6.2.0/../../../../arm-altera-eabi/lib\libc.a(lib_a-fwrite.o)
 .data          0x00000000        0x0 c:/intelfpga/18.1/embedded/host_tools/mentor/gnu/arm/baremetal/bin/../lib/gcc/arm-altera-eabi/6.2.0/../../../../arm-altera-eabi/lib\libc.a(lib_a-fwrite.o)
 .bss           0x00000000        0x0 c:/intelfpga/18.1/embedded/host_tools/mentor/gnu/arm/baremetal/bin/../lib/gcc/arm-altera-eabi/6.2.0/../../../../arm-altera-eabi/lib\libc.a(lib_a-fwrite.o)
 .data          0x00000000        0x0 c:/intelfpga/18.1/embedded/host_tools/mentor/gnu/arm/baremetal/bin/../lib/gcc/arm-altera-eabi/6.2.0/../../../../arm-altera-eabi/lib\libc.a(lib_a-getreent.o)
 .bss           0x00000000        0x0 c:/intelfpga/18.1/embedded/host_tools/mentor/gnu/arm/baremetal/bin/../lib/gcc/arm-altera-eabi/6.2.0/../../../../arm-altera-eabi/lib\libc.a(lib_a-getreent.o)
 .text          0x00000000        0x0 c:/intelfpga/18.1/embedded/host_tools/mentor/gnu/arm/baremetal/bin/../lib/gcc/arm-altera-eabi/6.2.0/../../../../arm-altera-eabi/lib\libc.a(lib_a-impure.o)
 .bss           0x00000000        0x0 c:/intelfpga/18.1/embedded/host_tools/mentor/gnu/arm/baremetal/bin/../lib/gcc/arm-altera-eabi/6.2.0/../../../../arm-altera-eabi/lib\libc.a(lib_a-impure.o)
 .data          0x00000000        0x0 c:/intelfpga/18.1/embedded/host_tools/mentor/gnu/arm/baremetal/bin/../lib/gcc/arm-altera-eabi/6.2.0/../../../../arm-altera-eabi/lib\libc.a(lib_a-init.o)
 .bss           0x00000000        0x0 c:/intelfpga/18.1/embedded/host_tools/mentor/gnu/arm/baremetal/bin/../lib/gcc/arm-altera-eabi/6.2.0/../../../../arm-altera-eabi/lib\libc.a(lib_a-init.o)
 .data          0x00000000        0x0 c:/intelfpga/18.1/embedded/host_tools/mentor/gnu/arm/baremetal/bin/../lib/gcc/arm-altera-eabi/6.2.0/../../../../arm-altera-eabi/lib\libc.a(lib_a-lcltime.o)
 .bss           0x00000000        0x0 c:/intelfpga/18.1/embedded/host_tools/mentor/gnu/arm/baremetal/bin/../lib/gcc/arm-altera-eabi/6.2.0/../../../../arm-altera-eabi/lib\libc.a(lib_a-lcltime.o)
 .data          0x00000000        0x0 c:/intelfpga/18.1/embedded/host_tools/mentor/gnu/arm/baremetal/bin/../lib/gcc/arm-altera-eabi/6.2.0/../../../../arm-altera-eabi/lib\libc.a(lib_a-lcltime_r.o)
 .bss           0x00000000        0x0 c:/intelfpga/18.1/embedded/host_tools/mentor/gnu/arm/baremetal/bin/../lib/gcc/arm-altera-eabi/6.2.0/../../../../arm-altera-eabi/lib\libc.a(lib_a-lcltime_r.o)
 .bss           0x00000000        0x4 c:/intelfpga/18.1/embedded/host_tools/mentor/gnu/arm/baremetal/bin/../lib/gcc/arm-altera-eabi/6.2.0/../../../../arm-altera-eabi/lib\libc.a(lib_a-locale.o)
 .data          0x00000000        0x0 c:/intelfpga/18.1/embedded/host_tools/mentor/gnu/arm/baremetal/bin/../lib/gcc/arm-altera-eabi/6.2.0/../../../../arm-altera-eabi/lib\libc.a(lib_a-makebuf.o)
 .bss           0x00000000        0x0 c:/intelfpga/18.1/embedded/host_tools/mentor/gnu/arm/baremetal/bin/../lib/gcc/arm-altera-eabi/6.2.0/../../../../arm-altera-eabi/lib\libc.a(lib_a-makebuf.o)
 .data          0x00000000        0x0 c:/intelfpga/18.1/embedded/host_tools/mentor/gnu/arm/baremetal/bin/../lib/gcc/arm-altera-eabi/6.2.0/../../../../arm-altera-eabi/lib\libc.a(lib_a-malloc.o)
 .bss           0x00000000        0x0 c:/intelfpga/18.1/embedded/host_tools/mentor/gnu/arm/baremetal/bin/../lib/gcc/arm-altera-eabi/6.2.0/../../../../arm-altera-eabi/lib\libc.a(lib_a-malloc.o)
 .data          0x00000000        0x0 c:/intelfpga/18.1/embedded/host_tools/mentor/gnu/arm/baremetal/bin/../lib/gcc/arm-altera-eabi/6.2.0/../../../../arm-altera-eabi/lib\libc.a(lib_a-mbtowc_r.o)
 .bss           0x00000000        0x0 c:/intelfpga/18.1/embedded/host_tools/mentor/gnu/arm/baremetal/bin/../lib/gcc/arm-altera-eabi/6.2.0/../../../../arm-altera-eabi/lib\libc.a(lib_a-mbtowc_r.o)
 .data          0x00000000        0x0 c:/intelfpga/18.1/embedded/host_tools/mentor/gnu/arm/baremetal/bin/../lib/gcc/arm-altera-eabi/6.2.0/../../../../arm-altera-eabi/lib\libc.a(lib_a-memcpy-stub.o)
 .bss           0x00000000        0x0 c:/intelfpga/18.1/embedded/host_tools/mentor/gnu/arm/baremetal/bin/../lib/gcc/arm-altera-eabi/6.2.0/../../../../arm-altera-eabi/lib\libc.a(lib_a-memcpy-stub.o)
 .data          0x00000000        0x0 c:/intelfpga/18.1/embedded/host_tools/mentor/gnu/arm/baremetal/bin/../lib/gcc/arm-altera-eabi/6.2.0/../../../../arm-altera-eabi/lib\libc.a(lib_a-memmove.o)
 .bss           0x00000000        0x0 c:/intelfpga/18.1/embedded/host_tools/mentor/gnu/arm/baremetal/bin/../lib/gcc/arm-altera-eabi/6.2.0/../../../../arm-altera-eabi/lib\libc.a(lib_a-memmove.o)
 .data          0x00000000        0x0 c:/intelfpga/18.1/embedded/host_tools/mentor/gnu/arm/baremetal/bin/../lib/gcc/arm-altera-eabi/6.2.0/../../../../arm-altera-eabi/lib\libc.a(lib_a-memset.o)
 .bss           0x00000000        0x0 c:/intelfpga/18.1/embedded/host_tools/mentor/gnu/arm/baremetal/bin/../lib/gcc/arm-altera-eabi/6.2.0/../../../../arm-altera-eabi/lib\libc.a(lib_a-memset.o)
 .data          0x00000000        0x0 c:/intelfpga/18.1/embedded/host_tools/mentor/gnu/arm/baremetal/bin/../lib/gcc/arm-altera-eabi/6.2.0/../../../../arm-altera-eabi/lib\libc.a(lib_a-mktime.o)
 .bss           0x00000000        0x0 c:/intelfpga/18.1/embedded/host_tools/mentor/gnu/arm/baremetal/bin/../lib/gcc/arm-altera-eabi/6.2.0/../../../../arm-altera-eabi/lib\libc.a(lib_a-mktime.o)
 .data          0x00000000        0x0 c:/intelfpga/18.1/embedded/host_tools/mentor/gnu/arm/baremetal/bin/../lib/gcc/arm-altera-eabi/6.2.0/../../../../arm-altera-eabi/lib\libc.a(lib_a-mlock.o)
 .text          0x00000000        0x0 c:/intelfpga/18.1/embedded/host_tools/mentor/gnu/arm/baremetal/bin/../lib/gcc/arm-altera-eabi/6.2.0/../../../../arm-altera-eabi/lib\libc.a(lib_a-month_lengths.o)
 .data          0x00000000        0x0 c:/intelfpga/18.1/embedded/host_tools/mentor/gnu/arm/baremetal/bin/../lib/gcc/arm-altera-eabi/6.2.0/../../../../arm-altera-eabi/lib\libc.a(lib_a-month_lengths.o)
 .bss           0x00000000        0x0 c:/intelfpga/18.1/embedded/host_tools/mentor/gnu/arm/baremetal/bin/../lib/gcc/arm-altera-eabi/6.2.0/../../../../arm-altera-eabi/lib\libc.a(lib_a-month_lengths.o)
 .data          0x00000000        0x0 c:/intelfpga/18.1/embedded/host_tools/mentor/gnu/arm/baremetal/bin/../lib/gcc/arm-altera-eabi/6.2.0/../../../../arm-altera-eabi/lib\libc.a(lib_a-printf.o)
 .bss           0x00000000        0x0 c:/intelfpga/18.1/embedded/host_tools/mentor/gnu/arm/baremetal/bin/../lib/gcc/arm-altera-eabi/6.2.0/../../../../arm-altera-eabi/lib\libc.a(lib_a-printf.o)
 .text          0x00000000       0x34 c:/intelfpga/18.1/embedded/host_tools/mentor/gnu/arm/baremetal/bin/../lib/gcc/arm-altera-eabi/6.2.0/../../../../arm-altera-eabi/lib\libc.a(lib_a-putchar.o)
 .data          0x00000000        0x0 c:/intelfpga/18.1/embedded/host_tools/mentor/gnu/arm/baremetal/bin/../lib/gcc/arm-altera-eabi/6.2.0/../../../../arm-altera-eabi/lib\libc.a(lib_a-putchar.o)
 .bss           0x00000000        0x0 c:/intelfpga/18.1/embedded/host_tools/mentor/gnu/arm/baremetal/bin/../lib/gcc/arm-altera-eabi/6.2.0/../../../../arm-altera-eabi/lib\libc.a(lib_a-putchar.o)
 .data          0x00000000        0x0 c:/intelfpga/18.1/embedded/host_tools/mentor/gnu/arm/baremetal/bin/../lib/gcc/arm-altera-eabi/6.2.0/../../../../arm-altera-eabi/lib\libc.a(lib_a-puts.o)
 .bss           0x00000000        0x0 c:/intelfpga/18.1/embedded/host_tools/mentor/gnu/arm/baremetal/bin/../lib/gcc/arm-altera-eabi/6.2.0/../../../../arm-altera-eabi/lib\libc.a(lib_a-puts.o)
 .data          0x00000000        0x0 c:/intelfpga/18.1/embedded/host_tools/mentor/gnu/arm/baremetal/bin/../lib/gcc/arm-altera-eabi/6.2.0/../../../../arm-altera-eabi/lib\libc.a(lib_a-rand.o)
 .bss           0x00000000        0x0 c:/intelfpga/18.1/embedded/host_tools/mentor/gnu/arm/baremetal/bin/../lib/gcc/arm-altera-eabi/6.2.0/../../../../arm-altera-eabi/lib\libc.a(lib_a-rand.o)
 .data          0x00000000        0x0 c:/intelfpga/18.1/embedded/host_tools/mentor/gnu/arm/baremetal/bin/../lib/gcc/arm-altera-eabi/6.2.0/../../../../arm-altera-eabi/lib\libc.a(lib_a-refill.o)
 .bss           0x00000000        0x0 c:/intelfpga/18.1/embedded/host_tools/mentor/gnu/arm/baremetal/bin/../lib/gcc/arm-altera-eabi/6.2.0/../../../../arm-altera-eabi/lib\libc.a(lib_a-refill.o)
 .data          0x00000000        0x0 c:/intelfpga/18.1/embedded/host_tools/mentor/gnu/arm/baremetal/bin/../lib/gcc/arm-altera-eabi/6.2.0/../../../../arm-altera-eabi/lib\libc.a(lib_a-rewind.o)
 .bss           0x00000000        0x0 c:/intelfpga/18.1/embedded/host_tools/mentor/gnu/arm/baremetal/bin/../lib/gcc/arm-altera-eabi/6.2.0/../../../../arm-altera-eabi/lib\libc.a(lib_a-rewind.o)
 .data          0x00000000        0x0 c:/intelfpga/18.1/embedded/host_tools/mentor/gnu/arm/baremetal/bin/../lib/gcc/arm-altera-eabi/6.2.0/../../../../arm-altera-eabi/lib\libc.a(lib_a-rget.o)
 .bss           0x00000000        0x0 c:/intelfpga/18.1/embedded/host_tools/mentor/gnu/arm/baremetal/bin/../lib/gcc/arm-altera-eabi/6.2.0/../../../../arm-altera-eabi/lib\libc.a(lib_a-rget.o)
 .data          0x00000000        0x0 c:/intelfpga/18.1/embedded/host_tools/mentor/gnu/arm/baremetal/bin/../lib/gcc/arm-altera-eabi/6.2.0/../../../../arm-altera-eabi/lib\libc.a(lib_a-setvbuf.o)
 .bss           0x00000000        0x0 c:/intelfpga/18.1/embedded/host_tools/mentor/gnu/arm/baremetal/bin/../lib/gcc/arm-altera-eabi/6.2.0/../../../../arm-altera-eabi/lib\libc.a(lib_a-setvbuf.o)
 .data          0x00000000        0x0 c:/intelfpga/18.1/embedded/host_tools/mentor/gnu/arm/baremetal/bin/../lib/gcc/arm-altera-eabi/6.2.0/../../../../arm-altera-eabi/lib\libc.a(lib_a-sprintf.o)
 .bss           0x00000000        0x0 c:/intelfpga/18.1/embedded/host_tools/mentor/gnu/arm/baremetal/bin/../lib/gcc/arm-altera-eabi/6.2.0/../../../../arm-altera-eabi/lib\libc.a(lib_a-sprintf.o)
 .data          0x00000000        0x0 c:/intelfpga/18.1/embedded/host_tools/mentor/gnu/arm/baremetal/bin/../lib/gcc/arm-altera-eabi/6.2.0/../../../../arm-altera-eabi/lib\libc.a(lib_a-stdio.o)
 .bss           0x00000000        0x0 c:/intelfpga/18.1/embedded/host_tools/mentor/gnu/arm/baremetal/bin/../lib/gcc/arm-altera-eabi/6.2.0/../../../../arm-altera-eabi/lib\libc.a(lib_a-stdio.o)
 .data          0x00000000        0x0 c:/intelfpga/18.1/embedded/host_tools/mentor/gnu/arm/baremetal/bin/../lib/gcc/arm-altera-eabi/6.2.0/../../../../arm-altera-eabi/lib\libc.a(lib_a-stpcpy.o)
 .bss           0x00000000        0x0 c:/intelfpga/18.1/embedded/host_tools/mentor/gnu/arm/baremetal/bin/../lib/gcc/arm-altera-eabi/6.2.0/../../../../arm-altera-eabi/lib\libc.a(lib_a-stpcpy.o)
 .data          0x00000000        0x0 c:/intelfpga/18.1/embedded/host_tools/mentor/gnu/arm/baremetal/bin/../lib/gcc/arm-altera-eabi/6.2.0/../../../../arm-altera-eabi/lib\libc.a(lib_a-strcasecmp.o)
 .bss           0x00000000        0x0 c:/intelfpga/18.1/embedded/host_tools/mentor/gnu/arm/baremetal/bin/../lib/gcc/arm-altera-eabi/6.2.0/../../../../arm-altera-eabi/lib\libc.a(lib_a-strcasecmp.o)
 .data          0x00000000        0x0 c:/intelfpga/18.1/embedded/host_tools/mentor/gnu/arm/baremetal/bin/../lib/gcc/arm-altera-eabi/6.2.0/../../../../arm-altera-eabi/lib\libc.a(lib_a-strcmp.o)
 .bss           0x00000000        0x0 c:/intelfpga/18.1/embedded/host_tools/mentor/gnu/arm/baremetal/bin/../lib/gcc/arm-altera-eabi/6.2.0/../../../../arm-altera-eabi/lib\libc.a(lib_a-strcmp.o)
 .data          0x00000000        0x0 c:/intelfpga/18.1/embedded/host_tools/mentor/gnu/arm/baremetal/bin/../lib/gcc/arm-altera-eabi/6.2.0/../../../../arm-altera-eabi/lib\libc.a(lib_a-strcpy.o)
 .bss           0x00000000        0x0 c:/intelfpga/18.1/embedded/host_tools/mentor/gnu/arm/baremetal/bin/../lib/gcc/arm-altera-eabi/6.2.0/../../../../arm-altera-eabi/lib\libc.a(lib_a-strcpy.o)
 .data          0x00000000        0x0 c:/intelfpga/18.1/embedded/host_tools/mentor/gnu/arm/baremetal/bin/../lib/gcc/arm-altera-eabi/6.2.0/../../../../arm-altera-eabi/lib\libc.a(lib_a-strlen-stub.o)
 .bss           0x00000000        0x0 c:/intelfpga/18.1/embedded/host_tools/mentor/gnu/arm/baremetal/bin/../lib/gcc/arm-altera-eabi/6.2.0/../../../../arm-altera-eabi/lib\libc.a(lib_a-strlen-stub.o)
 .data          0x00000000        0x0 c:/intelfpga/18.1/embedded/host_tools/mentor/gnu/arm/baremetal/bin/../lib/gcc/arm-altera-eabi/6.2.0/../../../../arm-altera-eabi/lib\libc.a(lib_a-strncasecmp.o)
 .bss           0x00000000        0x0 c:/intelfpga/18.1/embedded/host_tools/mentor/gnu/arm/baremetal/bin/../lib/gcc/arm-altera-eabi/6.2.0/../../../../arm-altera-eabi/lib\libc.a(lib_a-strncasecmp.o)
 .data          0x00000000        0x0 c:/intelfpga/18.1/embedded/host_tools/mentor/gnu/arm/baremetal/bin/../lib/gcc/arm-altera-eabi/6.2.0/../../../../arm-altera-eabi/lib\libc.a(lib_a-strncat.o)
 .bss           0x00000000        0x0 c:/intelfpga/18.1/embedded/host_tools/mentor/gnu/arm/baremetal/bin/../lib/gcc/arm-altera-eabi/6.2.0/../../../../arm-altera-eabi/lib\libc.a(lib_a-strncat.o)
 .data          0x00000000        0x0 c:/intelfpga/18.1/embedded/host_tools/mentor/gnu/arm/baremetal/bin/../lib/gcc/arm-altera-eabi/6.2.0/../../../../arm-altera-eabi/lib\libc.a(lib_a-strncmp.o)
 .bss           0x00000000        0x0 c:/intelfpga/18.1/embedded/host_tools/mentor/gnu/arm/baremetal/bin/../lib/gcc/arm-altera-eabi/6.2.0/../../../../arm-altera-eabi/lib\libc.a(lib_a-strncmp.o)
 .data          0x00000000        0x0 c:/intelfpga/18.1/embedded/host_tools/mentor/gnu/arm/baremetal/bin/../lib/gcc/arm-altera-eabi/6.2.0/../../../../arm-altera-eabi/lib\libc.a(lib_a-strncpy.o)
 .bss           0x00000000        0x0 c:/intelfpga/18.1/embedded/host_tools/mentor/gnu/arm/baremetal/bin/../lib/gcc/arm-altera-eabi/6.2.0/../../../../arm-altera-eabi/lib\libc.a(lib_a-strncpy.o)
 .data          0x00000000        0x0 c:/intelfpga/18.1/embedded/host_tools/mentor/gnu/arm/baremetal/bin/../lib/gcc/arm-altera-eabi/6.2.0/../../../../arm-altera-eabi/lib\libc.a(lib_a-strrchr.o)
 .bss           0x00000000        0x0 c:/intelfpga/18.1/embedded/host_tools/mentor/gnu/arm/baremetal/bin/../lib/gcc/arm-altera-eabi/6.2.0/../../../../arm-altera-eabi/lib\libc.a(lib_a-strrchr.o)
 .data          0x00000000        0x0 c:/intelfpga/18.1/embedded/host_tools/mentor/gnu/arm/baremetal/bin/../lib/gcc/arm-altera-eabi/6.2.0/../../../../arm-altera-eabi/lib\libc.a(lib_a-strstr.o)
 .bss           0x00000000        0x0 c:/intelfpga/18.1/embedded/host_tools/mentor/gnu/arm/baremetal/bin/../lib/gcc/arm-altera-eabi/6.2.0/../../../../arm-altera-eabi/lib\libc.a(lib_a-strstr.o)
 .data          0x00000000        0x0 c:/intelfpga/18.1/embedded/host_tools/mentor/gnu/arm/baremetal/bin/../lib/gcc/arm-altera-eabi/6.2.0/../../../../arm-altera-eabi/lib\libc.a(lib_a-strtol.o)
 .bss           0x00000000        0x0 c:/intelfpga/18.1/embedded/host_tools/mentor/gnu/arm/baremetal/bin/../lib/gcc/arm-altera-eabi/6.2.0/../../../../arm-altera-eabi/lib\libc.a(lib_a-strtol.o)
 .data          0x00000000        0x0 c:/intelfpga/18.1/embedded/host_tools/mentor/gnu/arm/baremetal/bin/../lib/gcc/arm-altera-eabi/6.2.0/../../../../arm-altera-eabi/lib\libc.a(lib_a-strtoll.o)
 .bss           0x00000000        0x0 c:/intelfpga/18.1/embedded/host_tools/mentor/gnu/arm/baremetal/bin/../lib/gcc/arm-altera-eabi/6.2.0/../../../../arm-altera-eabi/lib\libc.a(lib_a-strtoll.o)
 .data          0x00000000        0x0 c:/intelfpga/18.1/embedded/host_tools/mentor/gnu/arm/baremetal/bin/../lib/gcc/arm-altera-eabi/6.2.0/../../../../arm-altera-eabi/lib\libc.a(lib_a-strtoul.o)
 .bss           0x00000000        0x0 c:/intelfpga/18.1/embedded/host_tools/mentor/gnu/arm/baremetal/bin/../lib/gcc/arm-altera-eabi/6.2.0/../../../../arm-altera-eabi/lib\libc.a(lib_a-strtoul.o)
 .data          0x00000000        0x0 c:/intelfpga/18.1/embedded/host_tools/mentor/gnu/arm/baremetal/bin/../lib/gcc/arm-altera-eabi/6.2.0/../../../../arm-altera-eabi/lib\libc.a(lib_a-strtoull.o)
 .bss           0x00000000        0x0 c:/intelfpga/18.1/embedded/host_tools/mentor/gnu/arm/baremetal/bin/../lib/gcc/arm-altera-eabi/6.2.0/../../../../arm-altera-eabi/lib\libc.a(lib_a-strtoull.o)
 .data          0x00000000        0x0 c:/intelfpga/18.1/embedded/host_tools/mentor/gnu/arm/baremetal/bin/../lib/gcc/arm-altera-eabi/6.2.0/../../../../arm-altera-eabi/lib\libc.a(lib_a-svfprintf.o)
 .bss           0x00000000        0x0 c:/intelfpga/18.1/embedded/host_tools/mentor/gnu/arm/baremetal/bin/../lib/gcc/arm-altera-eabi/6.2.0/../../../../arm-altera-eabi/lib\libc.a(lib_a-svfprintf.o)
 .text          0x00000000       0x1c c:/intelfpga/18.1/embedded/host_tools/mentor/gnu/arm/baremetal/bin/../lib/gcc/arm-altera-eabi/6.2.0/../../../../arm-altera-eabi/lib\libc.a(lib_a-sysclose.o)
 .data          0x00000000        0x0 c:/intelfpga/18.1/embedded/host_tools/mentor/gnu/arm/baremetal/bin/../lib/gcc/arm-altera-eabi/6.2.0/../../../../arm-altera-eabi/lib\libc.a(lib_a-sysclose.o)
 .bss           0x00000000        0x0 c:/intelfpga/18.1/embedded/host_tools/mentor/gnu/arm/baremetal/bin/../lib/gcc/arm-altera-eabi/6.2.0/../../../../arm-altera-eabi/lib\libc.a(lib_a-sysclose.o)
 .data          0x00000000        0x0 c:/intelfpga/18.1/embedded/host_tools/mentor/gnu/arm/baremetal/bin/../lib/gcc/arm-altera-eabi/6.2.0/../../../../arm-altera-eabi/lib\libc.a(lib_a-sysstat.o)
 .bss           0x00000000        0x0 c:/intelfpga/18.1/embedded/host_tools/mentor/gnu/arm/baremetal/bin/../lib/gcc/arm-altera-eabi/6.2.0/../../../../arm-altera-eabi/lib\libc.a(lib_a-sysstat.o)
 .data          0x00000000        0x0 c:/intelfpga/18.1/embedded/host_tools/mentor/gnu/arm/baremetal/bin/../lib/gcc/arm-altera-eabi/6.2.0/../../../../arm-altera-eabi/lib\libc.a(lib_a-tzcalc_limits.o)
 .bss           0x00000000        0x0 c:/intelfpga/18.1/embedded/host_tools/mentor/gnu/arm/baremetal/bin/../lib/gcc/arm-altera-eabi/6.2.0/../../../../arm-altera-eabi/lib\libc.a(lib_a-tzcalc_limits.o)
 .data          0x00000000        0x0 c:/intelfpga/18.1/embedded/host_tools/mentor/gnu/arm/baremetal/bin/../lib/gcc/arm-altera-eabi/6.2.0/../../../../arm-altera-eabi/lib\libc.a(lib_a-tzlock.o)
 .data          0x00000000        0x0 c:/intelfpga/18.1/embedded/host_tools/mentor/gnu/arm/baremetal/bin/../lib/gcc/arm-altera-eabi/6.2.0/../../../../arm-altera-eabi/lib\libc.a(lib_a-tzset.o)
 .bss           0x00000000        0x0 c:/intelfpga/18.1/embedded/host_tools/mentor/gnu/arm/baremetal/bin/../lib/gcc/arm-altera-eabi/6.2.0/../../../../arm-altera-eabi/lib\libc.a(lib_a-tzset.o)
 .data          0x00000000        0x0 c:/intelfpga/18.1/embedded/host_tools/mentor/gnu/arm/baremetal/bin/../lib/gcc/arm-altera-eabi/6.2.0/../../../../arm-altera-eabi/lib\libc.a(lib_a-tzset_r.o)
 .text          0x00000000        0x0 c:/intelfpga/18.1/embedded/host_tools/mentor/gnu/arm/baremetal/bin/../lib/gcc/arm-altera-eabi/6.2.0/../../../../arm-altera-eabi/lib\libc.a(lib_a-tzvars.o)
 .data          0x00000000        0x0 c:/intelfpga/18.1/embedded/host_tools/mentor/gnu/arm/baremetal/bin/../lib/gcc/arm-altera-eabi/6.2.0/../../../../arm-altera-eabi/lib\libc.a(lib_a-ungetc.o)
 .bss           0x00000000        0x0 c:/intelfpga/18.1/embedded/host_tools/mentor/gnu/arm/baremetal/bin/../lib/gcc/arm-altera-eabi/6.2.0/../../../../arm-altera-eabi/lib\libc.a(lib_a-ungetc.o)
 .data          0x00000000        0x0 c:/intelfpga/18.1/embedded/host_tools/mentor/gnu/arm/baremetal/bin/../lib/gcc/arm-altera-eabi/6.2.0/../../../../arm-altera-eabi/lib\libc.a(lib_a-vfprintf.o)
 .bss           0x00000000        0x0 c:/intelfpga/18.1/embedded/host_tools/mentor/gnu/arm/baremetal/bin/../lib/gcc/arm-altera-eabi/6.2.0/../../../../arm-altera-eabi/lib\libc.a(lib_a-vfprintf.o)
 .data          0x00000000        0x0 c:/intelfpga/18.1/embedded/host_tools/mentor/gnu/arm/baremetal/bin/../lib/gcc/arm-altera-eabi/6.2.0/../../../../arm-altera-eabi/lib\libc.a(lib_a-vfscanf.o)
 .bss           0x00000000        0x0 c:/intelfpga/18.1/embedded/host_tools/mentor/gnu/arm/baremetal/bin/../lib/gcc/arm-altera-eabi/6.2.0/../../../../arm-altera-eabi/lib\libc.a(lib_a-vfscanf.o)
 .text          0x00000000       0xf4 c:/intelfpga/18.1/embedded/host_tools/mentor/gnu/arm/baremetal/bin/../lib/gcc/arm-altera-eabi/6.2.0/../../../../arm-altera-eabi/lib\libc.a(lib_a-vsnprintf.o)
 .data          0x00000000        0x0 c:/intelfpga/18.1/embedded/host_tools/mentor/gnu/arm/baremetal/bin/../lib/gcc/arm-altera-eabi/6.2.0/../../../../arm-altera-eabi/lib\libc.a(lib_a-vsnprintf.o)
 .bss           0x00000000        0x0 c:/intelfpga/18.1/embedded/host_tools/mentor/gnu/arm/baremetal/bin/../lib/gcc/arm-altera-eabi/6.2.0/../../../../arm-altera-eabi/lib\libc.a(lib_a-vsnprintf.o)
 .data          0x00000000        0x0 c:/intelfpga/18.1/embedded/host_tools/mentor/gnu/arm/baremetal/bin/../lib/gcc/arm-altera-eabi/6.2.0/../../../../arm-altera-eabi/lib\libc.a(lib_a-wbuf.o)
 .bss           0x00000000        0x0 c:/intelfpga/18.1/embedded/host_tools/mentor/gnu/arm/baremetal/bin/../lib/gcc/arm-altera-eabi/6.2.0/../../../../arm-altera-eabi/lib\libc.a(lib_a-wbuf.o)
 .data          0x00000000        0x0 c:/intelfpga/18.1/embedded/host_tools/mentor/gnu/arm/baremetal/bin/../lib/gcc/arm-altera-eabi/6.2.0/../../../../arm-altera-eabi/lib\libc.a(lib_a-wctomb_r.o)
 .bss           0x00000000        0x0 c:/intelfpga/18.1/embedded/host_tools/mentor/gnu/arm/baremetal/bin/../lib/gcc/arm-altera-eabi/6.2.0/../../../../arm-altera-eabi/lib\libc.a(lib_a-wctomb_r.o)
 .data          0x00000000        0x0 c:/intelfpga/18.1/embedded/host_tools/mentor/gnu/arm/baremetal/bin/../lib/gcc/arm-altera-eabi/6.2.0/../../../../arm-altera-eabi/lib\libc.a(lib_a-wsetup.o)
 .bss           0x00000000        0x0 c:/intelfpga/18.1/embedded/host_tools/mentor/gnu/arm/baremetal/bin/../lib/gcc/arm-altera-eabi/6.2.0/../../../../arm-altera-eabi/lib\libc.a(lib_a-wsetup.o)
 .data          0x00000000        0x0 c:/intelfpga/18.1/embedded/host_tools/mentor/gnu/arm/baremetal/bin/../lib/gcc/arm-altera-eabi/6.2.0/../../../../arm-altera-eabi/lib\libc.a(lib_a-__call_atexit.o)
 .data          0x00000000        0x0 c:/intelfpga/18.1/embedded/host_tools/mentor/gnu/arm/baremetal/bin/../lib/gcc/arm-altera-eabi/6.2.0/../../../../arm-altera-eabi/lib\libc.a(lib_a-atexit.o)
 .bss           0x00000000        0x0 c:/intelfpga/18.1/embedded/host_tools/mentor/gnu/arm/baremetal/bin/../lib/gcc/arm-altera-eabi/6.2.0/../../../../arm-altera-eabi/lib\libc.a(lib_a-atexit.o)
 .text          0x00000000        0x0 c:/intelfpga/18.1/embedded/host_tools/mentor/gnu/arm/baremetal/bin/../lib/gcc/arm-altera-eabi/6.2.0/../../../../arm-altera-eabi/lib\libc.a(lib_a-ctype_.o)
 .data          0x00000000        0x0 c:/intelfpga/18.1/embedded/host_tools/mentor/gnu/arm/baremetal/bin/../lib/gcc/arm-altera-eabi/6.2.0/../../../../arm-altera-eabi/lib\libc.a(lib_a-ctype_.o)
 .bss           0x00000000        0x0 c:/intelfpga/18.1/embedded/host_tools/mentor/gnu/arm/baremetal/bin/../lib/gcc/arm-altera-eabi/6.2.0/../../../../arm-altera-eabi/lib\libc.a(lib_a-ctype_.o)
 .data          0x00000000        0x0 c:/intelfpga/18.1/embedded/host_tools/mentor/gnu/arm/baremetal/bin/../lib/gcc/arm-altera-eabi/6.2.0/../../../../arm-altera-eabi/lib\libc.a(lib_a-div.o)
 .bss           0x00000000        0x0 c:/intelfpga/18.1/embedded/host_tools/mentor/gnu/arm/baremetal/bin/../lib/gcc/arm-altera-eabi/6.2.0/../../../../arm-altera-eabi/lib\libc.a(lib_a-div.o)
 .data          0x00000000        0x0 c:/intelfpga/18.1/embedded/host_tools/mentor/gnu/arm/baremetal/bin/../lib/gcc/arm-altera-eabi/6.2.0/../../../../arm-altera-eabi/lib\libc.a(lib_a-dtoa.o)
 .bss           0x00000000        0x0 c:/intelfpga/18.1/embedded/host_tools/mentor/gnu/arm/baremetal/bin/../lib/gcc/arm-altera-eabi/6.2.0/../../../../arm-altera-eabi/lib\libc.a(lib_a-dtoa.o)
 .data          0x00000000        0x0 c:/intelfpga/18.1/embedded/host_tools/mentor/gnu/arm/baremetal/bin/../lib/gcc/arm-altera-eabi/6.2.0/../../../../arm-altera-eabi/lib\libc.a(lib_a-fini.o)
 .bss           0x00000000        0x0 c:/intelfpga/18.1/embedded/host_tools/mentor/gnu/arm/baremetal/bin/../lib/gcc/arm-altera-eabi/6.2.0/../../../../arm-altera-eabi/lib\libc.a(lib_a-fini.o)
 .data          0x00000000        0x0 c:/intelfpga/18.1/embedded/host_tools/mentor/gnu/arm/baremetal/bin/../lib/gcc/arm-altera-eabi/6.2.0/../../../../arm-altera-eabi/lib\libc.a(lib_a-flags.o)
 .bss           0x00000000        0x0 c:/intelfpga/18.1/embedded/host_tools/mentor/gnu/arm/baremetal/bin/../lib/gcc/arm-altera-eabi/6.2.0/../../../../arm-altera-eabi/lib\libc.a(lib_a-flags.o)
 .data          0x00000000        0x0 c:/intelfpga/18.1/embedded/host_tools/mentor/gnu/arm/baremetal/bin/../lib/gcc/arm-altera-eabi/6.2.0/../../../../arm-altera-eabi/lib\libc.a(lib_a-fvwrite.o)
 .bss           0x00000000        0x0 c:/intelfpga/18.1/embedded/host_tools/mentor/gnu/arm/baremetal/bin/../lib/gcc/arm-altera-eabi/6.2.0/../../../../arm-altera-eabi/lib\libc.a(lib_a-fvwrite.o)
 .data          0x00000000        0x0 c:/intelfpga/18.1/embedded/host_tools/mentor/gnu/arm/baremetal/bin/../lib/gcc/arm-altera-eabi/6.2.0/../../../../arm-altera-eabi/lib\libc.a(lib_a-getenv_r.o)
 .bss           0x00000000        0x0 c:/intelfpga/18.1/embedded/host_tools/mentor/gnu/arm/baremetal/bin/../lib/gcc/arm-altera-eabi/6.2.0/../../../../arm-altera-eabi/lib\libc.a(lib_a-getenv_r.o)
 .bss           0x00000000        0x0 c:/intelfpga/18.1/embedded/host_tools/mentor/gnu/arm/baremetal/bin/../lib/gcc/arm-altera-eabi/6.2.0/../../../../arm-altera-eabi/lib\libc.a(lib_a-gettzinfo.o)
 .data          0x00000000        0x0 c:/intelfpga/18.1/embedded/host_tools/mentor/gnu/arm/baremetal/bin/../lib/gcc/arm-altera-eabi/6.2.0/../../../../arm-altera-eabi/lib\libc.a(lib_a-gmtime_r.o)
 .bss           0x00000000        0x0 c:/intelfpga/18.1/embedded/host_tools/mentor/gnu/arm/baremetal/bin/../lib/gcc/arm-altera-eabi/6.2.0/../../../../arm-altera-eabi/lib\libc.a(lib_a-gmtime_r.o)
 .data          0x00000000        0x0 c:/intelfpga/18.1/embedded/host_tools/mentor/gnu/arm/baremetal/bin/../lib/gcc/arm-altera-eabi/6.2.0/../../../../arm-altera-eabi/lib\libc.a(lib_a-iswspace.o)
 .bss           0x00000000        0x0 c:/intelfpga/18.1/embedded/host_tools/mentor/gnu/arm/baremetal/bin/../lib/gcc/arm-altera-eabi/6.2.0/../../../../arm-altera-eabi/lib\libc.a(lib_a-iswspace.o)
 .data          0x00000000        0x0 c:/intelfpga/18.1/embedded/host_tools/mentor/gnu/arm/baremetal/bin/../lib/gcc/arm-altera-eabi/6.2.0/../../../../arm-altera-eabi/lib\libc.a(lib_a-localeconv.o)
 .bss           0x00000000        0x0 c:/intelfpga/18.1/embedded/host_tools/mentor/gnu/arm/baremetal/bin/../lib/gcc/arm-altera-eabi/6.2.0/../../../../arm-altera-eabi/lib\libc.a(lib_a-localeconv.o)
 .data          0x00000000        0x0 c:/intelfpga/18.1/embedded/host_tools/mentor/gnu/arm/baremetal/bin/../lib/gcc/arm-altera-eabi/6.2.0/../../../../arm-altera-eabi/lib\libc.a(lib_a-mbrtowc.o)
 .bss           0x00000000        0x0 c:/intelfpga/18.1/embedded/host_tools/mentor/gnu/arm/baremetal/bin/../lib/gcc/arm-altera-eabi/6.2.0/../../../../arm-altera-eabi/lib\libc.a(lib_a-mbrtowc.o)
 .data          0x00000000        0x0 c:/intelfpga/18.1/embedded/host_tools/mentor/gnu/arm/baremetal/bin/../lib/gcc/arm-altera-eabi/6.2.0/../../../../arm-altera-eabi/lib\libc.a(lib_a-memchr-stub.o)
 .bss           0x00000000        0x0 c:/intelfpga/18.1/embedded/host_tools/mentor/gnu/arm/baremetal/bin/../lib/gcc/arm-altera-eabi/6.2.0/../../../../arm-altera-eabi/lib\libc.a(lib_a-memchr-stub.o)
 .data          0x00000000        0x0 c:/intelfpga/18.1/embedded/host_tools/mentor/gnu/arm/baremetal/bin/../lib/gcc/arm-altera-eabi/6.2.0/../../../../arm-altera-eabi/lib\libc.a(lib_a-memcmp.o)
 .bss           0x00000000        0x0 c:/intelfpga/18.1/embedded/host_tools/mentor/gnu/arm/baremetal/bin/../lib/gcc/arm-altera-eabi/6.2.0/../../../../arm-altera-eabi/lib\libc.a(lib_a-memcmp.o)
 .data          0x00000000        0x0 c:/intelfpga/18.1/embedded/host_tools/mentor/gnu/arm/baremetal/bin/../lib/gcc/arm-altera-eabi/6.2.0/../../../../arm-altera-eabi/lib\libc.a(lib_a-mprec.o)
 .bss           0x00000000        0x0 c:/intelfpga/18.1/embedded/host_tools/mentor/gnu/arm/baremetal/bin/../lib/gcc/arm-altera-eabi/6.2.0/../../../../arm-altera-eabi/lib\libc.a(lib_a-mprec.o)
 .text          0x00000000      0x1bc c:/intelfpga/18.1/embedded/host_tools/mentor/gnu/arm/baremetal/bin/../lib/gcc/arm-altera-eabi/6.2.0/../../../../arm-altera-eabi/lib\libc.a(lib_a-putc.o)
 .data          0x00000000        0x0 c:/intelfpga/18.1/embedded/host_tools/mentor/gnu/arm/baremetal/bin/../lib/gcc/arm-altera-eabi/6.2.0/../../../../arm-altera-eabi/lib\libc.a(lib_a-putc.o)
 .bss           0x00000000        0x0 c:/intelfpga/18.1/embedded/host_tools/mentor/gnu/arm/baremetal/bin/../lib/gcc/arm-altera-eabi/6.2.0/../../../../arm-altera-eabi/lib\libc.a(lib_a-putc.o)
 .data          0x00000000        0x0 c:/intelfpga/18.1/embedded/host_tools/mentor/gnu/arm/baremetal/bin/../lib/gcc/arm-altera-eabi/6.2.0/../../../../arm-altera-eabi/lib\libc.a(lib_a-reallocr.o)
 .bss           0x00000000        0x0 c:/intelfpga/18.1/embedded/host_tools/mentor/gnu/arm/baremetal/bin/../lib/gcc/arm-altera-eabi/6.2.0/../../../../arm-altera-eabi/lib\libc.a(lib_a-reallocr.o)
 .data          0x00000000        0x0 c:/intelfpga/18.1/embedded/host_tools/mentor/gnu/arm/baremetal/bin/../lib/gcc/arm-altera-eabi/6.2.0/../../../../arm-altera-eabi/lib\libc.a(lib_a-sccl.o)
 .bss           0x00000000        0x0 c:/intelfpga/18.1/embedded/host_tools/mentor/gnu/arm/baremetal/bin/../lib/gcc/arm-altera-eabi/6.2.0/../../../../arm-altera-eabi/lib\libc.a(lib_a-sccl.o)
 .data          0x00000000        0x0 c:/intelfpga/18.1/embedded/host_tools/mentor/gnu/arm/baremetal/bin/../lib/gcc/arm-altera-eabi/6.2.0/../../../../arm-altera-eabi/lib\libc.a(lib_a-sf_nan.o)
 .bss           0x00000000        0x0 c:/intelfpga/18.1/embedded/host_tools/mentor/gnu/arm/baremetal/bin/../lib/gcc/arm-altera-eabi/6.2.0/../../../../arm-altera-eabi/lib\libc.a(lib_a-sf_nan.o)
 .data          0x00000000        0x0 c:/intelfpga/18.1/embedded/host_tools/mentor/gnu/arm/baremetal/bin/../lib/gcc/arm-altera-eabi/6.2.0/../../../../arm-altera-eabi/lib\libc.a(lib_a-siscanf.o)
 .bss           0x00000000        0x0 c:/intelfpga/18.1/embedded/host_tools/mentor/gnu/arm/baremetal/bin/../lib/gcc/arm-altera-eabi/6.2.0/../../../../arm-altera-eabi/lib\libc.a(lib_a-siscanf.o)
 .data          0x00000000        0x0 c:/intelfpga/18.1/embedded/host_tools/mentor/gnu/arm/baremetal/bin/../lib/gcc/arm-altera-eabi/6.2.0/../../../../arm-altera-eabi/lib\libc.a(lib_a-strchr.o)
 .bss           0x00000000        0x0 c:/intelfpga/18.1/embedded/host_tools/mentor/gnu/arm/baremetal/bin/../lib/gcc/arm-altera-eabi/6.2.0/../../../../arm-altera-eabi/lib\libc.a(lib_a-strchr.o)
 .data          0x00000000        0x0 c:/intelfpga/18.1/embedded/host_tools/mentor/gnu/arm/baremetal/bin/../lib/gcc/arm-altera-eabi/6.2.0/../../../../arm-altera-eabi/lib\libc.a(lib_a-strtod.o)
 .bss           0x00000000        0x0 c:/intelfpga/18.1/embedded/host_tools/mentor/gnu/arm/baremetal/bin/../lib/gcc/arm-altera-eabi/6.2.0/../../../../arm-altera-eabi/lib\libc.a(lib_a-strtod.o)
 .data          0x00000000        0x0 c:/intelfpga/18.1/embedded/host_tools/mentor/gnu/arm/baremetal/bin/../lib/gcc/arm-altera-eabi/6.2.0/../../../../arm-altera-eabi/lib\libc.a(lib_a-svfiprintf.o)
 .bss           0x00000000        0x0 c:/intelfpga/18.1/embedded/host_tools/mentor/gnu/arm/baremetal/bin/../lib/gcc/arm-altera-eabi/6.2.0/../../../../arm-altera-eabi/lib\libc.a(lib_a-svfiprintf.o)
 .data          0x00000000        0x0 c:/intelfpga/18.1/embedded/host_tools/mentor/gnu/arm/baremetal/bin/../lib/gcc/arm-altera-eabi/6.2.0/../../../../arm-altera-eabi/lib\libc.a(lib_a-svfiscanf.o)
 .bss           0x00000000        0x0 c:/intelfpga/18.1/embedded/host_tools/mentor/gnu/arm/baremetal/bin/../lib/gcc/arm-altera-eabi/6.2.0/../../../../arm-altera-eabi/lib\libc.a(lib_a-svfiscanf.o)
 .data          0x00000000        0x0 c:/intelfpga/18.1/embedded/host_tools/mentor/gnu/arm/baremetal/bin/../lib/gcc/arm-altera-eabi/6.2.0/../../../../arm-altera-eabi/lib\libc.a(lib_a-vfiprintf.o)
 .bss           0x00000000        0x0 c:/intelfpga/18.1/embedded/host_tools/mentor/gnu/arm/baremetal/bin/../lib/gcc/arm-altera-eabi/6.2.0/../../../../arm-altera-eabi/lib\libc.a(lib_a-vfiprintf.o)
 .data          0x00000000        0x0 c:/intelfpga/18.1/embedded/host_tools/mentor/gnu/arm/baremetal/bin/../lib/gcc/arm-altera-eabi/6.2.0/../../../../arm-altera-eabi/lib\libc.a(lib_a-__atexit.o)
 .bss           0x00000000        0x0 c:/intelfpga/18.1/embedded/host_tools/mentor/gnu/arm/baremetal/bin/../lib/gcc/arm-altera-eabi/6.2.0/../../../../arm-altera-eabi/lib\libc.a(lib_a-__atexit.o)
 .text          0x00000000        0x0 c:/intelfpga/18.1/embedded/host_tools/mentor/gnu/arm/baremetal/bin/../lib/gcc/arm-altera-eabi/6.2.0/../../../../arm-altera-eabi/lib\libc.a(lib_a-environ.o)
 .data          0x00000000        0x0 c:/intelfpga/18.1/embedded/host_tools/mentor/gnu/arm/baremetal/bin/../lib/gcc/arm-altera-eabi/6.2.0/../../../../arm-altera-eabi/lib\libc.a(lib_a-envlock.o)
 .data          0x00000000        0x0 c:/intelfpga/18.1/embedded/host_tools/mentor/gnu/arm/baremetal/bin/../lib/gcc/arm-altera-eabi/6.2.0/../../../../arm-altera-eabi/lib\libc.a(lib_a-fputwc.o)
 .bss           0x00000000        0x0 c:/intelfpga/18.1/embedded/host_tools/mentor/gnu/arm/baremetal/bin/../lib/gcc/arm-altera-eabi/6.2.0/../../../../arm-altera-eabi/lib\libc.a(lib_a-fputwc.o)
 .data          0x00000000        0x0 c:/intelfpga/18.1/embedded/host_tools/mentor/gnu/arm/baremetal/bin/../lib/gcc/arm-altera-eabi/6.2.0/../../../../arm-altera-eabi/lib\libc.a(lib_a-gdtoa-gethex.o)
 .bss           0x00000000        0x0 c:/intelfpga/18.1/embedded/host_tools/mentor/gnu/arm/baremetal/bin/../lib/gcc/arm-altera-eabi/6.2.0/../../../../arm-altera-eabi/lib\libc.a(lib_a-gdtoa-gethex.o)
 .data          0x00000000        0x0 c:/intelfpga/18.1/embedded/host_tools/mentor/gnu/arm/baremetal/bin/../lib/gcc/arm-altera-eabi/6.2.0/../../../../arm-altera-eabi/lib\libc.a(lib_a-gdtoa-hexnan.o)
 .bss           0x00000000        0x0 c:/intelfpga/18.1/embedded/host_tools/mentor/gnu/arm/baremetal/bin/../lib/gcc/arm-altera-eabi/6.2.0/../../../../arm-altera-eabi/lib\libc.a(lib_a-gdtoa-hexnan.o)
 .data          0x00000000        0x0 c:/intelfpga/18.1/embedded/host_tools/mentor/gnu/arm/baremetal/bin/../lib/gcc/arm-altera-eabi/6.2.0/../../../../arm-altera-eabi/lib\libc.a(lib_a-wcrtomb.o)
 .bss           0x00000000        0x0 c:/intelfpga/18.1/embedded/host_tools/mentor/gnu/arm/baremetal/bin/../lib/gcc/arm-altera-eabi/6.2.0/../../../../arm-altera-eabi/lib\libc.a(lib_a-wcrtomb.o)
 .data          0x00000000        0x0 c:/intelfpga/18.1/embedded/host_tools/mentor/gnu/arm/baremetal/bin/../lib/gcc/arm-altera-eabi/6.2.0/../../../../arm-altera-eabi/lib\libm.a(lib_a-w_sqrt.o)
 .bss           0x00000000        0x0 c:/intelfpga/18.1/embedded/host_tools/mentor/gnu/arm/baremetal/bin/../lib/gcc/arm-altera-eabi/6.2.0/../../../../arm-altera-eabi/lib\libm.a(lib_a-w_sqrt.o)
 .data          0x00000000        0x0 c:/intelfpga/18.1/embedded/host_tools/mentor/gnu/arm/baremetal/bin/../lib/gcc/arm-altera-eabi/6.2.0/../../../../arm-altera-eabi/lib\libm.a(lib_a-e_sqrt.o)
 .bss           0x00000000        0x0 c:/intelfpga/18.1/embedded/host_tools/mentor/gnu/arm/baremetal/bin/../lib/gcc/arm-altera-eabi/6.2.0/../../../../arm-altera-eabi/lib\libm.a(lib_a-e_sqrt.o)
 .text          0x00000000        0x0 c:/intelfpga/18.1/embedded/host_tools/mentor/gnu/arm/baremetal/bin/../lib/gcc/arm-altera-eabi/6.2.0/../../../../arm-altera-eabi/lib\libm.a(lib_a-s_lib_ver.o)
 .bss           0x00000000        0x0 c:/intelfpga/18.1/embedded/host_tools/mentor/gnu/arm/baremetal/bin/../lib/gcc/arm-altera-eabi/6.2.0/../../../../arm-altera-eabi/lib\libm.a(lib_a-s_lib_ver.o)
 .data          0x00000000        0x0 c:/intelfpga/18.1/embedded/host_tools/mentor/gnu/arm/baremetal/bin/../lib/gcc/arm-altera-eabi/6.2.0/../../../../arm-altera-eabi/lib\libm.a(lib_a-s_matherr.o)
 .bss           0x00000000        0x0 c:/intelfpga/18.1/embedded/host_tools/mentor/gnu/arm/baremetal/bin/../lib/gcc/arm-altera-eabi/6.2.0/../../../../arm-altera-eabi/lib\libm.a(lib_a-s_matherr.o)
 .data          0x00000000        0x0 c:/intelfpga/18.1/embedded/host_tools/mentor/gnu/arm/baremetal/bin/../lib/gcc/arm-altera-eabi/6.2.0\libgcc.a(_arm_addsubdf3.o)
 .bss           0x00000000        0x0 c:/intelfpga/18.1/embedded/host_tools/mentor/gnu/arm/baremetal/bin/../lib/gcc/arm-altera-eabi/6.2.0\libgcc.a(_arm_addsubdf3.o)
 .data          0x00000000        0x0 c:/intelfpga/18.1/embedded/host_tools/mentor/gnu/arm/baremetal/bin/../lib/gcc/arm-altera-eabi/6.2.0\libgcc.a(_arm_muldivdf3.o)
 .bss           0x00000000        0x0 c:/intelfpga/18.1/embedded/host_tools/mentor/gnu/arm/baremetal/bin/../lib/gcc/arm-altera-eabi/6.2.0\libgcc.a(_arm_muldivdf3.o)
 .data          0x00000000        0x0 c:/intelfpga/18.1/embedded/host_tools/mentor/gnu/arm/baremetal/bin/../lib/gcc/arm-altera-eabi/6.2.0\libgcc.a(_arm_cmpdf2.o)
 .bss           0x00000000        0x0 c:/intelfpga/18.1/embedded/host_tools/mentor/gnu/arm/baremetal/bin/../lib/gcc/arm-altera-eabi/6.2.0\libgcc.a(_arm_cmpdf2.o)
 .data          0x00000000        0x0 c:/intelfpga/18.1/embedded/host_tools/mentor/gnu/arm/baremetal/bin/../lib/gcc/arm-altera-eabi/6.2.0\libgcc.a(_arm_unorddf2.o)
 .bss           0x00000000        0x0 c:/intelfpga/18.1/embedded/host_tools/mentor/gnu/arm/baremetal/bin/../lib/gcc/arm-altera-eabi/6.2.0\libgcc.a(_arm_unorddf2.o)
 .data          0x00000000        0x0 c:/intelfpga/18.1/embedded/host_tools/mentor/gnu/arm/baremetal/bin/../lib/gcc/arm-altera-eabi/6.2.0\libgcc.a(_arm_fixdfsi.o)
 .bss           0x00000000        0x0 c:/intelfpga/18.1/embedded/host_tools/mentor/gnu/arm/baremetal/bin/../lib/gcc/arm-altera-eabi/6.2.0\libgcc.a(_arm_fixdfsi.o)
 .data          0x00000000        0x0 c:/intelfpga/18.1/embedded/host_tools/mentor/gnu/arm/baremetal/bin/../lib/gcc/arm-altera-eabi/6.2.0\libgcc.a(_arm_fixunsdfsi.o)
 .bss           0x00000000        0x0 c:/intelfpga/18.1/embedded/host_tools/mentor/gnu/arm/baremetal/bin/../lib/gcc/arm-altera-eabi/6.2.0\libgcc.a(_arm_fixunsdfsi.o)
 .data          0x00000000        0x0 c:/intelfpga/18.1/embedded/host_tools/mentor/gnu/arm/baremetal/bin/../lib/gcc/arm-altera-eabi/6.2.0\libgcc.a(_arm_truncdfsf2.o)
 .bss           0x00000000        0x0 c:/intelfpga/18.1/embedded/host_tools/mentor/gnu/arm/baremetal/bin/../lib/gcc/arm-altera-eabi/6.2.0\libgcc.a(_arm_truncdfsf2.o)
 .data          0x00000000        0x0 c:/intelfpga/18.1/embedded/host_tools/mentor/gnu/arm/baremetal/bin/../lib/gcc/arm-altera-eabi/6.2.0\libgcc.a(_arm_cmpsf2.o)
 .bss           0x00000000        0x0 c:/intelfpga/18.1/embedded/host_tools/mentor/gnu/arm/baremetal/bin/../lib/gcc/arm-altera-eabi/6.2.0\libgcc.a(_arm_cmpsf2.o)
 .data          0x00000000        0x0 c:/intelfpga/18.1/embedded/host_tools/mentor/gnu/arm/baremetal/bin/../lib/gcc/arm-altera-eabi/6.2.0\libgcc.a(gthr-generic.o)
 .bss           0x00000000        0x0 c:/intelfpga/18.1/embedded/host_tools/mentor/gnu/arm/baremetal/bin/../lib/gcc/arm-altera-eabi/6.2.0\libgcc.a(gthr-generic.o)
 .text          0x00000000        0x0 c:/intelfpga/18.1/embedded/host_tools/mentor/gnu/arm/baremetal/bin/../lib/gcc/arm-altera-eabi/6.2.0/crtend.o
 .data          0x00000000        0x0 c:/intelfpga/18.1/embedded/host_tools/mentor/gnu/arm/baremetal/bin/../lib/gcc/arm-altera-eabi/6.2.0/crtend.o
 .bss           0x00000000        0x0 c:/intelfpga/18.1/embedded/host_tools/mentor/gnu/arm/baremetal/bin/../lib/gcc/arm-altera-eabi/6.2.0/crtend.o
 .text          0x00000000        0x0 c:/intelfpga/18.1/embedded/host_tools/mentor/gnu/arm/baremetal/bin/../lib/gcc/arm-altera-eabi/6.2.0/crtn.o
 .data          0x00000000        0x0 c:/intelfpga/18.1/embedded/host_tools/mentor/gnu/arm/baremetal/bin/../lib/gcc/arm-altera-eabi/6.2.0/crtn.o
 .bss           0x00000000        0x0 c:/intelfpga/18.1/embedded/host_tools/mentor/gnu/arm/baremetal/bin/../lib/gcc/arm-altera-eabi/6.2.0/crtn.o

Memory Configuration

Name             Origin             Length             Attributes
boot_rom         0xfffd0000         0x00010000         xr
oc_ram           0xffff0000         0x00010000         xrw
ram              0x00100040         0x3fefffc0         xrw
*default*        0x00000000         0xffffffff

Linker script and memory map

LOAD c:/intelfpga/18.1/embedded/host_tools/mentor/gnu/arm/baremetal/bin/../lib/gcc/arm-altera-eabi/6.2.0/crti.o
LOAD c:/intelfpga/18.1/embedded/host_tools/mentor/gnu/arm/baremetal/bin/../lib/gcc/arm-altera-eabi/6.2.0/crtbegin.o
LOAD Main_mAbassi.o
LOAD MyApp_MTL2.o
LOAD TIMERinit.o
LOAD alt_gpio.o
LOAD arm_acp.o
LOAD arm_pl330.o
LOAD dw_i2c.o
LOAD dw_uart.o
LOAD MediaIF.o
LOAD SysCall_CY5.o
LOAD dw_sdmmc.o
LOAD ff.o
LOAD ffunicode.o
LOAD Abassi_FatFS.o
LOAD Media_FatFS.o
LOAD SysCall_FatFS.o
LOAD tahomabold_20.o
LOAD tahomabold_32.o
LOAD geometry.o
LOAD gesture.o
LOAD gui_vpg.o
LOAD gui.o
LOAD vip_fr.o
LOAD simple_graphics.o
LOAD simple_text.o
LOAD debug.o
LOAD I2C_core.o
LOAD I2C.o
LOAD multi_touch2.o
LOAD queue.o
LOAD alt_generalpurpose_io.o
LOAD alt_globaltmr.o
LOAD alt_clock_manager.o
LOAD mAbassiCfgA9.o
LOAD Shell.o
LOAD SubShell.o
LOAD ../../mAbassi/Platform/lib\lib_mAbassi_EVAL_GCC_AR5_CY5.a
LOAD c:/intelfpga/18.1/embedded/host_tools/mentor/gnu/arm/baremetal/bin/../lib/gcc/arm-altera-eabi/6.2.0/../../../../arm-altera-eabi/lib\libcs3.a
LOAD c:/intelfpga/18.1/embedded/host_tools/mentor/gnu/arm/baremetal/bin/../lib/gcc/arm-altera-eabi/6.2.0/../../../../arm-altera-eabi/lib\libcs3unhosted.a
LOAD c:/intelfpga/18.1/embedded/host_tools/mentor/gnu/arm/baremetal/bin/../lib/gcc/arm-altera-eabi/6.2.0/../../../../arm-altera-eabi/lib\libcs3arm.a
LOAD c:/intelfpga/18.1/embedded/host_tools/mentor/gnu/arm/baremetal/bin/../lib/gcc/arm-altera-eabi/6.2.0\libgcc.a
LOAD c:/intelfpga/18.1/embedded/host_tools/mentor/gnu/arm/baremetal/bin/../lib/gcc/arm-altera-eabi/6.2.0/../../../../arm-altera-eabi/lib\libc.a
LOAD c:/intelfpga/18.1/embedded/host_tools/mentor/gnu/arm/baremetal/bin/../lib/gcc/arm-altera-eabi/6.2.0/../../../../arm-altera-eabi/lib\libstdc++.a
LOAD c:/intelfpga/18.1/embedded/host_tools/mentor/gnu/arm/baremetal/bin/../lib/gcc/arm-altera-eabi/6.2.0/../../../../arm-altera-eabi/lib\libm.a
START GROUP
LOAD c:/intelfpga/18.1/embedded/host_tools/mentor/gnu/arm/baremetal/bin/../lib/gcc/arm-altera-eabi/6.2.0\libgcc.a
LOAD c:/intelfpga/18.1/embedded/host_tools/mentor/gnu/arm/baremetal/bin/../lib/gcc/arm-altera-eabi/6.2.0/../../../../arm-altera-eabi/lib\libc.a
END GROUP
LOAD c:/intelfpga/18.1/embedded/host_tools/mentor/gnu/arm/baremetal/bin/../lib/gcc/arm-altera-eabi/6.2.0/crtend.o
LOAD c:/intelfpga/18.1/embedded/host_tools/mentor/gnu/arm/baremetal/bin/../lib/gcc/arm-altera-eabi/6.2.0/crtn.o
                0x10000000                _MDRV_SIZE = DEFINED (_MDRV_SIZE)?_MDRV_SIZE:0x10000000
START GROUP
LOAD c:/intelfpga/18.1/embedded/host_tools/mentor/gnu/arm/baremetal/bin/../lib/gcc/arm-altera-eabi/6.2.0\libgcc.a
LOAD c:/intelfpga/18.1/embedded/host_tools/mentor/gnu/arm/baremetal/bin/../lib/gcc/arm-altera-eabi/6.2.0/../../../../arm-altera-eabi/lib\libc.a
LOAD c:/intelfpga/18.1/embedded/host_tools/mentor/gnu/arm/baremetal/bin/../lib/gcc/arm-altera-eabi/6.2.0/../../../../arm-altera-eabi/lib\libcs3.a
LOAD c:/intelfpga/18.1/embedded/host_tools/mentor/gnu/arm/baremetal/bin/../lib/gcc/arm-altera-eabi/6.2.0/../../../../arm-altera-eabi/lib\libcs3unhosted.a
LOAD c:/intelfpga/18.1/embedded/host_tools/mentor/gnu/arm/baremetal/bin/../lib/gcc/arm-altera-eabi/6.2.0/../../../../arm-altera-eabi/lib\libcs3arm.a
END GROUP
                0x00188078                PROVIDE (__cs3_heap_start, _end)
                0x40000000                PROVIDE (__cs3_heap_end, (__cs3_region_start_ram + __cs3_region_size_ram))
                0x00000002                PROVIDE (__cs3_region_num, ((__cs3_regions_end - __cs3_regions) / 0x14))
                0x40000000                PROVIDE (__cs3_stack, (__cs3_region_start_ram + __cs3_region_size_ram))

.text           0x00100040    0x459a8
 CREATE_OBJECT_SYMBOLS
                0x00100040                __cs3_region_start_ram = .
                0x00100040                _ftext = .
 *(.cs3.region-head.ram)
                0x00000001                ASSERT ((. == __cs3_region_start_ram), .cs3.region-head.ram not permitted)
                0x00100040                __cs3_interrupt_vector = __cs3_interrupt_vector_arm
 *(.cs3.interrupt_vector)
 .cs3.interrupt_vector
                0x00100040       0x3c ../../mAbassi/Platform/lib\lib_mAbassi_EVAL_GCC_AR5_CY5.a(mAbassi_EVAL_GCC_AR5_CY5_NR.o)
                0x00100040                Vectors
                0x00100040                __cs3_interrupt_vector_arm
                0x00100040                _vector_table
                0x00000001                ASSERT ((. != __cs3_interrupt_vector_arm), No interrupt vector)
                0x0010007c                PROVIDE (__cs3_reset, __cs3_reset_cycloneV_dk_ram)
 *(.cs3.reset)
 .cs3.reset     0x0010007c        0x4 c:/intelfpga/18.1/embedded/host_tools/mentor/gnu/arm/baremetal/bin/../lib/gcc/arm-altera-eabi/6.2.0/../../../../arm-altera-eabi/lib\libcs3.a(cycloneV-dk-reset-ram.o)
                0x0010007c                __cs3_reset_cycloneV_dk_ram
                [0x00100114]                _start = DEFINED (__cs3_start_asm)?__cs3_start_asm:_start
 *(.text.cs3.init)
 .text.cs3.init
                0x00100080       0x94 c:/intelfpga/18.1/embedded/host_tools/mentor/gnu/arm/baremetal/bin/../lib/gcc/arm-altera-eabi/6.2.0/../../../../arm-altera-eabi/lib\libcs3.a(start_c.o)
                0x00100080                __cs3_start_c
 .text.cs3.init
                0x00100114        0xc c:/intelfpga/18.1/embedded/host_tools/mentor/gnu/arm/baremetal/bin/../lib/gcc/arm-altera-eabi/6.2.0/../../../../arm-altera-eabi/lib\libcs3unhosted.a(unhosted-start.o)
 *(.text .text.* .gnu.linkonce.t.*)
 .text          0x00100120      0x108 c:/intelfpga/18.1/embedded/host_tools/mentor/gnu/arm/baremetal/bin/../lib/gcc/arm-altera-eabi/6.2.0/crtbegin.o
 .text.startup.main
                0x00100228      0x3a4 Main_mAbassi.o
                0x00100228                main
 .text.TIMcallBack
                0x001005cc        0x4 Main_mAbassi.o
                0x001005cc                TIMcallBack
 .text.spi_CallbackInterrupt
                0x001005d0      0x2d4 MyApp_MTL2.o
                0x001005d0                spi_CallbackInterrupt
 .text.mtc2_CallbackInterrupt
                0x001008a4       0x3c MyApp_MTL2.o
                0x001008a4                mtc2_CallbackInterrupt
 .text.spi_Nios_CallbackInterrupt
                0x001008e0       0xc0 MyApp_MTL2.o
                0x001008e0                spi_Nios_CallbackInterrupt
 .text.unlikely.die
                0x001009a0       0x28 MyApp_MTL2.o
 .text.button_CallbackInterrupt
                0x001009c8       0xb0 MyApp_MTL2.o
                0x001009c8                button_CallbackInterrupt
 .text.Task_DMA
                0x00100a78      0x2f0 MyApp_MTL2.o
                0x00100a78                Task_DMA
 .text.Task_State
                0x00100d68      0x28c MyApp_MTL2.o
                0x00100d68                Task_State
 .text.delay_us
                0x00100ff4       0x90 MyApp_MTL2.o
                0x00100ff4                delay_us
 .text.Task_FPGA_Button
                0x00101084       0x5c MyApp_MTL2.o
                0x00101084                Task_FPGA_Button
 .text.Task_SPI
                0x001010e0       0xd4 MyApp_MTL2.o
                0x001010e0                Task_SPI
 .text.setup_hps_gpio
                0x001011b4       0x78 MyApp_MTL2.o
                0x001011b4                setup_hps_gpio
 .text.Task_HPS_Led
                0x0010122c      0x1a8 MyApp_MTL2.o
                0x0010122c                Task_HPS_Led
 .text.cmd_ls   0x001013d4      0x2f0 MyApp_MTL2.o
                0x001013d4                cmd_ls
 .text.Task_MTL2
                0x001016c4      0x218 MyApp_MTL2.o
                0x001016c4                Task_MTL2
 .text.ImageRead
                0x001018dc      0x248 MyApp_MTL2.o
                0x001018dc                ImageRead
 .text.AddImage
                0x00101b24      0x10c MyApp_MTL2.o
                0x00101b24                AddImage
 .text.AddFullImage
                0x00101c30       0xe8 MyApp_MTL2.o
                0x00101c30                AddFullImage
 .text.Task_DisplayFile
                0x00101d18     0x1198 MyApp_MTL2.o
                0x00101d18                Task_DisplayFile
 .text.TIMERinit
                0x00102eb0       0x28 TIMERinit.o
                0x00102eb0                TIMERinit
 .text.gpio_init
                0x00102ed8       0x54 alt_gpio.o
                0x00102ed8                gpio_init
 .text.DMAasm   0x00102f2c      0x288 arm_pl330.o
 .text.dma_start_X.constprop.9
                0x001031b4      0x1e0 arm_pl330.o
 .text.dma_cleanup.part.0.constprop.10
                0x00103394      0x528 arm_pl330.o
 .text.dma_kill_X
                0x001038bc      0x270 arm_pl330.o
 .text.dma_done
                0x00103b2c      0x124 arm_pl330.o
                0x00103b2c                dma_done
 .text.dma_kill
                0x00103c50       0x2c arm_pl330.o
                0x00103c50                dma_kill
 .text.dma_start
                0x00103c7c      0x1ac arm_pl330.o
                0x00103c7c                dma_start
 .text.dma_wait
                0x00103e28      0x45c arm_pl330.o
                0x00103e28                dma_wait
 .text.dma_xfer
                0x00104284     0x1c64 arm_pl330.o
                0x00104284                dma_xfer
 .text.dma_init
                0x00105ee8      0x340 arm_pl330.o
                0x00105ee8                dma_init
 .text.DMAintHndl_0
                0x00106228      0x140 arm_pl330.o
                0x00106228                DMAintHndl_0
 .text.DMAintHndl_1
                0x00106368      0x148 arm_pl330.o
                0x00106368                DMAintHndl_1
 .text.DMAintHndl_2
                0x001064b0      0x148 arm_pl330.o
                0x001064b0                DMAintHndl_2
 .text.DMAintHndl_3
                0x001065f8      0x14c arm_pl330.o
                0x001065f8                DMAintHndl_3
 .text.DMAintHndl_4
                0x00106744      0x148 arm_pl330.o
                0x00106744                DMAintHndl_4
 .text.DMAintHndl_5
                0x0010688c      0x14c arm_pl330.o
                0x0010688c                DMAintHndl_5
 .text.DMAintHndl_6
                0x001069d8      0x148 arm_pl330.o
                0x001069d8                DMAintHndl_6
 .text.DMAintHndl_7
                0x00106b20      0x14c arm_pl330.o
                0x00106b20                DMAintHndl_7
 .text.i2c_init
                0x00106c6c      0x598 dw_i2c.o
                0x00106c6c                i2c_init
 .text.i2c_send
                0x00107204      0x7b4 dw_i2c.o
                0x00107204                i2c_send
 .text.i2c_recv
                0x001079b8      0xae0 dw_i2c.o
                0x001079b8                i2c_recv
 .text.uart_send
                0x00108498      0x8a8 dw_uart.o
                0x00108498                uart_send
 .text.uart_recv
                0x00108d40      0x794 dw_uart.o
                0x00108d40                uart_recv
 .text.uart_filt
                0x001094d4       0x90 dw_uart.o
                0x001094d4                uart_filt
 .text.uart_init
                0x00109564      0x3f4 dw_uart.o
                0x00109564                uart_init
 .text.UARTintHndl_0
                0x00109958      0x1a0 dw_uart.o
                0x00109958                UARTintHndl_0
 .text.UARTintHndl_1
                0x00109af8      0x1a0 dw_uart.o
                0x00109af8                UARTintHndl_1
 .text.MEDIAstatus
                0x00109c98       0x50 MediaIF.o
                0x00109c98                MEDIAstatus
 .text.MEDIAinit
                0x00109ce8       0xe0 MediaIF.o
                0x00109ce8                MEDIAinit
 .text.MEDIAread
                0x00109dc8      0x1cc MediaIF.o
                0x00109dc8                MEDIAread
 .text.MEDIAwrite
                0x00109f94      0x1b0 MediaIF.o
                0x00109f94                MEDIAwrite
 .text.MEDIAsize
                0x0010a144       0x64 MediaIF.o
                0x0010a144                MEDIAsize
 .text.MEDIAblksize
                0x0010a1a8       0x50 MediaIF.o
                0x0010a1a8                MEDIAblksize
 .text.MEDIAsectsz
                0x0010a1f8       0x48 MediaIF.o
                0x0010a1f8                MEDIAsectsz
 .text.MEDIAinfo
                0x0010a240       0x2c MediaIF.o
                0x0010a240                MEDIAinfo
 .text.mmc_sendcmd.constprop.5
                0x0010a26c      0x3f0 dw_sdmmc.o
 .text.SDprepData.isra.1.constprop.6
                0x0010a65c      0x16c dw_sdmmc.o
 .text.mmc_sendcmd.constprop.3
                0x0010a7c8      0x48c dw_sdmmc.o
 .text.mmc_sendcmd.constprop.2
                0x0010ac54      0x48c dw_sdmmc.o
 .text.mmc_sendstatus
                0x0010b0e0      0x38c dw_sdmmc.o
                0x0010b0e0                mmc_sendstatus
 .text.mmc_read
                0x0010b46c      0x384 dw_sdmmc.o
                0x0010b46c                mmc_read
 .text.mmc_write
                0x0010b7f0      0x378 dw_sdmmc.o
                0x0010b7f0                mmc_write
 .text.mmc_init
                0x0010bb68     0x13d0 dw_sdmmc.o
                0x0010bb68                mmc_init
 .text.mmc_blklen
                0x0010cf38       0x10 dw_sdmmc.o
                0x0010cf38                mmc_blklen
 .text.mmc_capacity
                0x0010cf48       0x10 dw_sdmmc.o
                0x0010cf48                mmc_capacity
 .text.MMCintHndl_0
                0x0010cf58       0xa8 dw_sdmmc.o
                0x0010cf58                MMCintHndl_0
 .text.init_alloc_info.isra.5
                0x0010d000       0xd0 ff.o
 .text.get_fileinfo
                0x0010d0d0      0x554 ff.o
 .text.move_window
                0x0010d624       0xbc ff.o
 .text.get_fat  0x0010d6e0      0x274 ff.o
 .text.dir_next.constprop.16
                0x0010d954      0x124 ff.o
 .text.sync_fs  0x0010da78      0x16c ff.o
 .text.dir_clear
                0x0010dbe4      0x1bc ff.o
 .text.check_fs
                0x0010dda0      0x18c ff.o
 .text.find_volume
                0x0010df2c      0x964 ff.o
 .text.load_xdir
                0x0010e890      0x354 ff.o
 .text.dir_read.constprop.15
                0x0010ebe4      0x72c ff.o
 .text.put_fat.part.9
                0x0010f310      0x444 ff.o
 .text.create_chain
                0x0010f754      0x850 ff.o
 .text.remove_chain
                0x0010ffa4      0x778 ff.o
 .text.dir_sdi  0x0011071c      0x564 ff.o
 .text.dir_alloc
                0x00110c80      0x2fc ff.o
 .text.store_xdir
                0x00110f7c      0x318 ff.o
 .text.dir_find
                0x00111294      0x68c ff.o
 .text.dir_register
                0x00111920      0xec0 ff.o
 .text.follow_path
                0x001127e0      0x73c ff.o
 .text.f_mount  0x00112f1c      0x1b4 ff.o
                0x00112f1c                f_mount
 .text.f_open   0x001130d0      0xa94 ff.o
                0x001130d0                f_open
 .text.f_read   0x00113b64      0x730 ff.o
                0x00113b64                f_read
 .text.f_write  0x00114294      0x784 ff.o
                0x00114294                f_write
 .text.f_sync   0x00114a18      0x4a8 ff.o
                0x00114a18                f_sync
 .text.f_close  0x00114ec0      0x5f4 ff.o
                0x00114ec0                f_close
 .text.f_lseek  0x001154b4      0x550 ff.o
                0x001154b4                f_lseek
 .text.f_opendir
                0x00115a04      0x454 ff.o
                0x00115a04                f_opendir
 .text.f_closedir
                0x00115e58      0x10c ff.o
                0x00115e58                f_closedir
 .text.f_readdir
                0x00115f64      0x150 ff.o
                0x00115f64                f_readdir
 .text.f_stat   0x001160b4       0xe8 ff.o
                0x001160b4                f_stat
 .text.f_truncate
                0x0011619c      0x20c ff.o
                0x0011619c                f_truncate
 .text.f_chmod  0x001163a8      0x14c ff.o
                0x001163a8                f_chmod
 .text.ff_uni2oem
                0x001164f4       0x68 ffunicode.o
                0x001164f4                ff_uni2oem
 .text.ff_oem2uni
                0x0011655c       0x3c ffunicode.o
                0x0011655c                ff_oem2uni
 .text.ff_wtoupper
                0x00116598      0x134 ffunicode.o
                0x00116598                ff_wtoupper
 .text.ff_cre_syncobj
                0x001166cc       0xc0 Abassi_FatFS.o
                0x001166cc                ff_cre_syncobj
 .text.ff_del_syncobj
                0x0011678c       0x14 Abassi_FatFS.o
                0x0011678c                ff_del_syncobj
 .text.ff_req_grant
                0x001167a0       0x20 Abassi_FatFS.o
                0x001167a0                ff_req_grant
 .text.ff_rel_grant
                0x001167c0       0x10 Abassi_FatFS.o
                0x001167c0                ff_rel_grant
 .text.ff_memalloc
                0x001167d0       0x50 Abassi_FatFS.o
                0x001167d0                ff_memalloc
 .text.ff_memfree
                0x00116820       0x4c Abassi_FatFS.o
                0x00116820                ff_memfree
 .text.disk_status
                0x0011686c       0x24 Media_FatFS.o
                0x0011686c                disk_status
 .text.disk_initialize
                0x00116890       0x20 Media_FatFS.o
                0x00116890                disk_initialize
 .text.disk_read
                0x001168b0       0x38 Media_FatFS.o
                0x001168b0                disk_read
 .text.disk_write
                0x001168e8       0x38 Media_FatFS.o
                0x001168e8                disk_write
 .text.media_info_FatFS
                0x00116920        0x4 Media_FatFS.o
                0x00116920                media_info_FatFS
 .text.disk_ioctl
                0x00116924       0xbc Media_FatFS.o
                0x00116924                disk_ioctl
 .text.LogPath  0x001169e0      0x2f4 SysCall_FatFS.o
 .text.RealPath
                0x00116cd4      0x220 SysCall_FatFS.o
 .text.SysCallInit
                0x00116ef4       0xbc SysCall_FatFS.o
                0x00116ef4                SysCallInit
 .text._open_r  0x00116fb0      0x57c SysCall_FatFS.o
                0x00116fb0                _open_r
 .text._read_r  0x0011752c      0x2d8 SysCall_FatFS.o
                0x0011752c                _read_r
 .text._write_r
                0x00117804      0x240 SysCall_FatFS.o
                0x00117804                _write_r
 .text._lseek_r
                0x00117a44      0x144 SysCall_FatFS.o
                0x00117a44                _lseek_r
 .text.getcwd   0x00117b88      0x230 SysCall_FatFS.o
                0x00117b88                getcwd
 .text._stat_r  0x00117db8      0x610 SysCall_FatFS.o
                0x00117db8                _stat_r
 .text._fstat_r
                0x001183c8       0xbc SysCall_FatFS.o
                0x001183c8                _fstat_r
 .text.chmod    0x00118484      0x278 SysCall_FatFS.o
                0x00118484                chmod
 .text._close_r
                0x001186fc      0x144 SysCall_FatFS.o
                0x001186fc                _close_r
 .text.mount    0x00118840      0x314 SysCall_FatFS.o
                0x00118840                mount
 *fill*         0x00118b54        0x4 
 .text.opendir  0x00118b58      0x44c SysCall_FatFS.o
                0x00118b58                opendir
 .text.closedir
                0x00118fa4       0x78 SysCall_FatFS.o
                0x00118fa4                closedir
 .text.readdir  0x0011901c      0x270 SysCall_FatFS.o
                0x0011901c                readdir
 .text._isatty_r
                0x0011928c       0x44 SysCall_FatFS.o
                0x0011928c                _isatty_r
 .text.GetKey   0x001192d0       0x3c SysCall_FatFS.o
                0x001192d0                GetKey
 .text.media_info
                0x0011930c        0x4 SysCall_FatFS.o
                0x0011930c                media_info
 .text.IsPtInRect
                0x00119310       0x48 geometry.o
                0x00119310                IsPtInRect
 .text.PtSet    0x00119358        0x8 geometry.o
                0x00119358                PtSet
 .text.RectSet  0x00119360        0xc geometry.o
                0x00119360                RectSet
 .text.RectInflate
                0x0011936c       0x34 geometry.o
                0x0011936c                RectInflate
 .text.RectOffset
                0x001193a0       0x34 geometry.o
                0x001193a0                RectOffset
 .text.RectCopy
                0x001193d4       0x28 geometry.o
                0x001193d4                RectCopy
 .text.GUI_DeskInit
                0x001193fc      0x1ac gui.o
                0x001193fc                GUI_DeskInit
 .text.GUI      0x001195a8      0x2dc gui.o
                0x001195a8                GUI
 .text.VIPFR_Init
                0x00119884       0x98 vip_fr.o
                0x00119884                VIPFR_Init
 .text.VIPFR_Go
                0x0011991c        0xc vip_fr.o
                0x0011991c                VIPFR_Go
 .text.VIPFR_GetDrawFrame
                0x00119928       0x1c vip_fr.o
                0x00119928                VIPFR_GetDrawFrame
 .text.VIPFR_ActiveDrawFrame
                0x00119944       0x1c vip_fr.o
                0x00119944                VIPFR_ActiveDrawFrame
 .text.vid_paint_block
                0x00119960      0x5a4 simple_graphics.o
                0x00119960                vid_paint_block
 .text.vid_clean_screen
                0x00119f04       0x30 simple_graphics.o
                0x00119f04                vid_clean_screen
 .text.vid_draw_horiz_line
                0x00119f34      0x5d0 simple_graphics.o
                0x00119f34                vid_draw_horiz_line
 .text.vid_round_corner_points.constprop.1
                0x0011a504      0x5b8 simple_graphics.o
 .text.vid_draw_circle
                0x0011aabc      0xf10 simple_graphics.o
                0x0011aabc                vid_draw_circle
 .text.oc_i2c_init
                0x0011b9cc       0x68 I2C_core.o
                0x0011b9cc                oc_i2c_init
 .text.OC_I2C_Read
                0x0011ba34      0x1c0 I2C_core.o
                0x0011ba34                OC_I2C_Read
 .text.mtc2_QueryData
                0x0011bbf4      0x1fc multi_touch2.o
                0x0011bbf4                mtc2_QueryData
 .text.MTC2_Init
                0x0011bdf0       0x3c multi_touch2.o
                0x0011bdf0                MTC2_Init
 .text.MTC2_GetStatus
                0x0011be2c       0xc0 multi_touch2.o
                0x0011be2c                MTC2_GetStatus
 .text.QUEUE_New
                0x0011beec       0x20 queue.o
                0x0011beec                QUEUE_New
 .text.QUEUE_IsEmpty
                0x0011bf0c       0x18 queue.o
                0x0011bf0c                QUEUE_IsEmpty
 .text.QUEUE_IsFull
                0x0011bf24       0x2c queue.o
                0x0011bf24                QUEUE_IsFull
 .text.QUEUE_Push
                0x0011bf50       0x38 queue.o
                0x0011bf50                QUEUE_Push
 .text.QUEUE_Pop
                0x0011bf88       0x38 queue.o
                0x0011bf88                QUEUE_Pop
 .text.alt_gpio_init
                0x0011bfc0       0x28 alt_generalpurpose_io.o
                0x0011bfc0                alt_gpio_init
 .text.alt_gpio_port_data_write
                0x0011bfe8       0x70 alt_generalpurpose_io.o
                0x0011bfe8                alt_gpio_port_data_write
 .text.alt_gpio_group_config
                0x0011c058      0x41c alt_generalpurpose_io.o
                0x0011c058                alt_gpio_group_config
 .text.alt_gpio_bit_to_pid
                0x0011c474       0x30 alt_generalpurpose_io.o
                0x0011c474                alt_gpio_bit_to_pid
 .text.alt_gpio_bit_to_port_pin
                0x0011c4a4       0x30 alt_generalpurpose_io.o
                0x0011c4a4                alt_gpio_bit_to_port_pin
 .text.alt_globaltmr_init
                0x0011c4d4       0x3c alt_globaltmr.o
                0x0011c4d4                alt_globaltmr_init
 .text.alt_globaltmr_start
                0x0011c510       0x18 alt_globaltmr.o
                0x0011c510                alt_globaltmr_start
 .text.alt_globaltmr_get64
                0x0011c528       0x6c alt_globaltmr.o
                0x0011c528                alt_globaltmr_get64
 .text.alt_globaltmr_prescaler_get
                0x0011c594       0x10 alt_globaltmr.o
                0x0011c594                alt_globaltmr_prescaler_get
 .text.alt_clk_pll_vco_freq_get.constprop.4
                0x0011c5a4       0xa8 alt_clock_manager.o
 .text.alt_clk_pll_vco_freq_get
                0x0011c64c      0x2a0 alt_clock_manager.o
                0x0011c64c                alt_clk_pll_vco_freq_get
 .text.alt_clk_divider_get
                0x0011c8ec      0x480 alt_clock_manager.o
                0x0011c8ec                alt_clk_divider_get
 .text.alt_clk_freq_get
                0x0011cd6c     0x1e38 alt_clock_manager.o
                0x0011cd6c                alt_clk_freq_get
 .text.PrtResult
                0x0011eba4      0x298 Shell.o
 .text.CmdLog   0x0011ee3c       0x18 Shell.o
 .text.CmdEdit  0x0011ee54       0x88 Shell.o
 .text.CmdMblk  0x0011eedc      0x160 Shell.o
 .text.CmdGrp   0x0011f03c      0x864 Shell.o
 .text.CmdSys   0x0011f8a0      0x5dc Shell.o
 .text.CmdHelp  0x0011fe7c      0x2d0 Shell.o
 .text.CmdEvt   0x0012014c      0x208 Shell.o
 .text.CmdMtx   0x00120354     0x1100 Shell.o
 .text.CmdSem   0x00121454     0x1190 Shell.o
 .text.CmdMbx   0x001225e4     0x15d0 Shell.o
 .text.CmdTim   0x00123bb4     0x1d28 Shell.o
 .text.CmdTask  0x001258dc     0x246c Shell.o
 .text.OSshell  0x00127d48      0xf70 Shell.o
                0x00127d48                OSshell
 .text.ShellGets
                0x00128cb8      0x2a0 Shell.o
                0x00128cb8                ShellGets
 .text.CmdMem   0x00128f58      0x530 Shell.o
 .text.TSKcreate.constprop.0
                0x00129488       0xf0 ../../mAbassi/Platform/lib\lib_mAbassi_EVAL_GCC_AR5_CY5.a(mAbassi_EVAL_A9_GCC_2_NR.o)
 .text.TSKgetID
                0x00129578       0x60 ../../mAbassi/Platform/lib\lib_mAbassi_EVAL_GCC_AR5_CY5.a(mAbassi_EVAL_A9_GCC_2_NR.o)
                0x00129578                TSKgetID
 .text.TSKstkChk
                0x001295d8       0x60 ../../mAbassi/Platform/lib\lib_mAbassi_EVAL_GCC_AR5_CY5.a(mAbassi_EVAL_A9_GCC_2_NR.o)
                0x001295d8                TSKstkChk
 .text.Abassi   0x00129638     0x2850 ../../mAbassi/Platform/lib\lib_mAbassi_EVAL_GCC_AR5_CY5.a(mAbassi_EVAL_A9_GCC_2_NR.o)
                0x00129638                Abassi
 .text.TSKcreate
                0x0012be88      0x350 ../../mAbassi/Platform/lib\lib_mAbassi_EVAL_GCC_AR5_CY5.a(mAbassi_EVAL_A9_GCC_2_NR.o)
                0x0012be88                TSKcreate
 .text.OSstart  0x0012c1d8      0x17c ../../mAbassi/Platform/lib\lib_mAbassi_EVAL_GCC_AR5_CY5.a(mAbassi_EVAL_A9_GCC_2_NR.o)
                0x0012c1d8                OSstart
 .text.TSKstart
                0x0012c354       0x60 ../../mAbassi/Platform/lib\lib_mAbassi_EVAL_GCC_AR5_CY5.a(mAbassi_EVAL_A9_GCC_2_NR.o)
                0x0012c354                TSKstart
 .text.SEM__open
                0x0012c3b4      0x144 ../../mAbassi/Platform/lib\lib_mAbassi_EVAL_GCC_AR5_CY5.a(mAbassi_EVAL_A9_GCC_2_NR.o)
                0x0012c3b4                SEM__open
 .text.MBX__open
                0x0012c4f8      0x154 ../../mAbassi/Platform/lib\lib_mAbassi_EVAL_GCC_AR5_CY5.a(mAbassi_EVAL_A9_GCC_2_NR.o)
                0x0012c4f8                MBX__open
 .text.MBXget   0x0012c64c      0x128 ../../mAbassi/Platform/lib\lib_mAbassi_EVAL_GCC_AR5_CY5.a(mAbassi_EVAL_A9_GCC_2_NR.o)
                0x0012c64c                MBXget
 .text.MBXput   0x0012c774       0xd8 ../../mAbassi/Platform/lib\lib_mAbassi_EVAL_GCC_AR5_CY5.a(mAbassi_EVAL_A9_GCC_2_NR.o)
                0x0012c774                MBXput
 .text.GroupRm  0x0012c84c       0xb4 ../../mAbassi/Platform/lib\lib_mAbassi_EVAL_GCC_AR5_CY5.a(mAbassi_EVAL_A9_GCC_2_NR.o)
                0x0012c84c                GroupRm
 .text.OSalloc  0x0012c900       0x68 ../../mAbassi/Platform/lib\lib_mAbassi_EVAL_GCC_AR5_CY5.a(mAbassi_EVAL_A9_GCC_2_NR.o)
                0x0012c900                OSalloc
 .text.TIMtick  0x0012c968      0x4a0 ../../mAbassi/Platform/lib\lib_mAbassi_EVAL_GCC_AR5_CY5.a(mAbassi_EVAL_A9_GCC_2_NR.o)
                0x0012c968                TIMtick
 .text          0x0012ce08      0xb48 ../../mAbassi/Platform/lib\lib_mAbassi_EVAL_GCC_AR5_CY5.a(mAbassi_EVAL_GCC_AR5_CY5_NR.o)
                0x0012ce18                __cs3_reset_generic
                0x0012ce18                Reset_Handler
                0x0012ce18                boot
                0x0012ce18                _prestart
                0x0012d1c0                _exit
                0x0012d1c8                _sbrk_r
                0x0012d200                OStrap
                0x0012d218                __cs3_isr_swi
                0x0012d218                mySWI
                0x0012d260                SWI_Handler
                0x0012d264                OScontext
                0x0012d284                CoreContext
                0x0012d298                OSstack
                0x0012d2f4                OSintCtrl
                0x0012d314                OSintBack
                0x0012d324                OSintOff
                0x0012d330                OSintOn
                0x0012d338                OSisrInfo
                0x0012d348                __cs3_isr_irq
                0x0012d348                ISRdispatch
                0x0012d47c                OSinvalidISR
                0x0012d484                COREgetPeriph
                0x0012d48c                COREgetID
                0x0012d498                GICinit
                0x0012d53c                GICenable
                0x0012d67c                COREstart1
                0x0012d688                COREstart2
                0x0012d694                COREstart3
                0x0012d6a0                COREstart0
                0x0012d6ac                CoreIdle
                0x0012d6dc                COREsafeGetID
                0x0012d700                COREsendISR
                0x0012d734                COREwakeISR
                0x0012d760                COREisInISR
                0x0012d774                COREtaskNow
                0x0012d798                COREchkRedo
                0x0012d7f8                CORElock
                0x0012d828                COREunlock
                0x0012d83c                SPINlock
                0x0012d84c                SPINtrylock
                0x0012d85c                SPIN_lock
                0x0012d8e4                SPINunlock
 .text          0x0012d950      0x798 ../../mAbassi/Platform/lib\lib_mAbassi_EVAL_GCC_AR5_CY5.a(ARMv7_SMP_L1_L2_GCC_AR5_CY5.o)
                0x0012d950                COREcacheON
                0x0012dddc                DCacheInvalRange
                0x0012def0                DCacheFlushRange
                0x0012e004                MMUlog2Phy
                0x0012e064                MMUphy2Log
 .text          0x0012e0e8       0x4c c:/intelfpga/18.1/embedded/host_tools/mentor/gnu/arm/baremetal/bin/../lib/gcc/arm-altera-eabi/6.2.0/../../../../arm-altera-eabi/lib\libcs3.a(start_c.o)
                0x0012e0e8                __cs3_premain
 .text          0x0012e134       0x78 c:/intelfpga/18.1/embedded/host_tools/mentor/gnu/arm/baremetal/bin/../lib/gcc/arm-altera-eabi/6.2.0/../../../../arm-altera-eabi/lib\libcs3.a(cycloneV-dk-reset-ram.o)
 .text          0x0012e1ac        0x4 c:/intelfpga/18.1/embedded/host_tools/mentor/gnu/arm/baremetal/bin/../lib/gcc/arm-altera-eabi/6.2.0/../../../../arm-altera-eabi/lib\libcs3arm.a(arm_isr_interrupt.o)
                0x0012e1ac                __cs3_isr_reserved
                0x0012e1ac                __cs3_isr_interrupt
 .text          0x0012e1b0      0x114 c:/intelfpga/18.1/embedded/host_tools/mentor/gnu/arm/baremetal/bin/../lib/gcc/arm-altera-eabi/6.2.0\libgcc.a(_udivsi3.o)
                0x0012e1b0                __aeabi_uidiv
                0x0012e1b0                __udivsi3
                0x0012e2a4                __aeabi_uidivmod
 .text          0x0012e2c4      0x148 c:/intelfpga/18.1/embedded/host_tools/mentor/gnu/arm/baremetal/bin/../lib/gcc/arm-altera-eabi/6.2.0\libgcc.a(_divsi3.o)
                0x0012e2c4                __divsi3
                0x0012e2c4                __aeabi_idiv
                0x0012e3ec                __aeabi_idivmod
 .text          0x0012e40c        0x4 c:/intelfpga/18.1/embedded/host_tools/mentor/gnu/arm/baremetal/bin/../lib/gcc/arm-altera-eabi/6.2.0\libgcc.a(_dvmd_tls.o)
                0x0012e40c                __aeabi_idiv0
                0x0012e40c                __aeabi_ldiv0
 .text          0x0012e410       0xd4 c:/intelfpga/18.1/embedded/host_tools/mentor/gnu/arm/baremetal/bin/../lib/gcc/arm-altera-eabi/6.2.0\libgcc.a(_aeabi_ldivmod.o)
                0x0012e410                __aeabi_ldivmod
 .text          0x0012e4e4       0x3c c:/intelfpga/18.1/embedded/host_tools/mentor/gnu/arm/baremetal/bin/../lib/gcc/arm-altera-eabi/6.2.0\libgcc.a(_aeabi_uldivmod.o)
                0x0012e4e4                __aeabi_uldivmod
 .text          0x0012e520      0x12c c:/intelfpga/18.1/embedded/host_tools/mentor/gnu/arm/baremetal/bin/../lib/gcc/arm-altera-eabi/6.2.0\libgcc.a(_udivmoddi4.o)
                0x0012e520                __udivmoddi4
 .text          0x0012e64c       0x28 c:/intelfpga/18.1/embedded/host_tools/mentor/gnu/arm/baremetal/bin/../lib/gcc/arm-altera-eabi/6.2.0\libgcc.a(_clzdi2.o)
                0x0012e64c                __clzdi2
 .text          0x0012e674       0x48 c:/intelfpga/18.1/embedded/host_tools/mentor/gnu/arm/baremetal/bin/../lib/gcc/arm-altera-eabi/6.2.0\libgcc.a(_clzsi2.o)
                0x0012e674                __clzsi2
 .text          0x0012e6bc       0x24 c:/intelfpga/18.1/embedded/host_tools/mentor/gnu/arm/baremetal/bin/../lib/gcc/arm-altera-eabi/6.2.0/../../../../arm-altera-eabi/lib\libc.a(lib_a-calloc.o)
                0x0012e6bc                calloc
 .text          0x0012e6e0       0x98 c:/intelfpga/18.1/embedded/host_tools/mentor/gnu/arm/baremetal/bin/../lib/gcc/arm-altera-eabi/6.2.0/../../../../arm-altera-eabi/lib\libc.a(lib_a-callocr.o)
                0x0012e6e0                _calloc_r
 .text          0x0012e778       0x10 c:/intelfpga/18.1/embedded/host_tools/mentor/gnu/arm/baremetal/bin/../lib/gcc/arm-altera-eabi/6.2.0/../../../../arm-altera-eabi/lib\libc.a(lib_a-errno.o)
                0x0012e778                __errno
 .text          0x0012e788       0x34 c:/intelfpga/18.1/embedded/host_tools/mentor/gnu/arm/baremetal/bin/../lib/gcc/arm-altera-eabi/6.2.0/../../../../arm-altera-eabi/lib\libc.a(lib_a-exit.o)
                0x0012e788                exit
 .text          0x0012e7bc      0x180 c:/intelfpga/18.1/embedded/host_tools/mentor/gnu/arm/baremetal/bin/../lib/gcc/arm-altera-eabi/6.2.0/../../../../arm-altera-eabi/lib\libc.a(lib_a-fclose.o)
                0x0012e7bc                _fclose_r
                0x0012e924                fclose
 .text          0x0012e93c      0x314 c:/intelfpga/18.1/embedded/host_tools/mentor/gnu/arm/baremetal/bin/../lib/gcc/arm-altera-eabi/6.2.0/../../../../arm-altera-eabi/lib\libc.a(lib_a-fflush.o)
                0x0012e93c                __sflush_r
                0x0012eb78                _fflush_r
                0x0012ec14                fflush
 .text          0x0012ec50      0x3e4 c:/intelfpga/18.1/embedded/host_tools/mentor/gnu/arm/baremetal/bin/../lib/gcc/arm-altera-eabi/6.2.0/../../../../arm-altera-eabi/lib\libc.a(lib_a-findfp.o)
                0x0012ec50                _cleanup_r
                0x0012ed5c                __sfmoreglue
                0x0012edac                _cleanup
                0x0012edd0                __sinit
                0x0012ee64                __sfp
                0x0012ef84                __sfp_lock_acquire
                0x0012ef9c                __sfp_lock_release
                0x0012efb4                __sinit_lock_acquire
                0x0012efcc                __sinit_lock_release
                0x0012efe4                __fp_lock_all
                0x0012f00c                __fp_unlock_all
 .text.startup  0x0012f034       0x30 c:/intelfpga/18.1/embedded/host_tools/mentor/gnu/arm/baremetal/bin/../lib/gcc/arm-altera-eabi/6.2.0/../../../../arm-altera-eabi/lib\libc.a(lib_a-findfp.o)
 .text          0x0012f064      0x16c c:/intelfpga/18.1/embedded/host_tools/mentor/gnu/arm/baremetal/bin/../lib/gcc/arm-altera-eabi/6.2.0/../../../../arm-altera-eabi/lib\libc.a(lib_a-fopen.o)
                0x0012f064                _fopen_r
                0x0012f1b0                fopen
 .text          0x0012f1d0       0x6c c:/intelfpga/18.1/embedded/host_tools/mentor/gnu/arm/baremetal/bin/../lib/gcc/arm-altera-eabi/6.2.0/../../../../arm-altera-eabi/lib\libc.a(lib_a-fprintf.o)
                0x0012f1d0                _fprintf_r
                0x0012f200                fprintf
 .text          0x0012f23c      0x2ec c:/intelfpga/18.1/embedded/host_tools/mentor/gnu/arm/baremetal/bin/../lib/gcc/arm-altera-eabi/6.2.0/../../../../arm-altera-eabi/lib\libc.a(lib_a-fread.o)
                0x0012f23c                _fread_r
                0x0012f4ec                fread
 .text          0x0012f528      0x3e0 c:/intelfpga/18.1/embedded/host_tools/mentor/gnu/arm/baremetal/bin/../lib/gcc/arm-altera-eabi/6.2.0/../../../../arm-altera-eabi/lib\libc.a(lib_a-freer.o)
                0x0012f528                _malloc_trim_r
                0x0012f628                _free_r
 .text          0x0012f908       0x6c c:/intelfpga/18.1/embedded/host_tools/mentor/gnu/arm/baremetal/bin/../lib/gcc/arm-altera-eabi/6.2.0/../../../../arm-altera-eabi/lib\libc.a(lib_a-fscanf.o)
                0x0012f908                fscanf
                0x0012f944                _fscanf_r
 .text          0x0012f974       0x3c c:/intelfpga/18.1/embedded/host_tools/mentor/gnu/arm/baremetal/bin/../lib/gcc/arm-altera-eabi/6.2.0/../../../../arm-altera-eabi/lib\libc.a(lib_a-fseek.o)
                0x0012f974                _fseek_r
                0x0012f984                fseek
 .text          0x0012f9b0      0x51c c:/intelfpga/18.1/embedded/host_tools/mentor/gnu/arm/baremetal/bin/../lib/gcc/arm-altera-eabi/6.2.0/../../../../arm-altera-eabi/lib\libc.a(lib_a-fseeko.o)
                0x0012f9b0                _fseeko_r
                0x0012fea4                fseeko
 .text          0x0012fecc       0x2c c:/intelfpga/18.1/embedded/host_tools/mentor/gnu/arm/baremetal/bin/../lib/gcc/arm-altera-eabi/6.2.0/../../../../arm-altera-eabi/lib\libc.a(lib_a-ftell.o)
                0x0012fecc                _ftell_r
                0x0012fedc                ftell
 .text          0x0012fef8      0x178 c:/intelfpga/18.1/embedded/host_tools/mentor/gnu/arm/baremetal/bin/../lib/gcc/arm-altera-eabi/6.2.0/../../../../arm-altera-eabi/lib\libc.a(lib_a-ftello.o)
                0x0012fef8                _ftello_r
                0x00130058                ftello
 .text          0x00130070      0x110 c:/intelfpga/18.1/embedded/host_tools/mentor/gnu/arm/baremetal/bin/../lib/gcc/arm-altera-eabi/6.2.0/../../../../arm-altera-eabi/lib\libc.a(lib_a-fwalk.o)
                0x00130070                _fwalk
                0x001300f4                _fwalk_reent
 .text          0x00130180       0x10 c:/intelfpga/18.1/embedded/host_tools/mentor/gnu/arm/baremetal/bin/../lib/gcc/arm-altera-eabi/6.2.0/../../../../arm-altera-eabi/lib\libc.a(lib_a-getreent.o)
                0x00130180                __getreent
 .text          0x00130190       0x80 c:/intelfpga/18.1/embedded/host_tools/mentor/gnu/arm/baremetal/bin/../lib/gcc/arm-altera-eabi/6.2.0/../../../../arm-altera-eabi/lib\libc.a(lib_a-init.o)
                0x00130190                __libc_init_array
 .text          0x00130210       0x20 c:/intelfpga/18.1/embedded/host_tools/mentor/gnu/arm/baremetal/bin/../lib/gcc/arm-altera-eabi/6.2.0/../../../../arm-altera-eabi/lib\libc.a(lib_a-lcltime.o)
                0x00130210                localtime
 .text          0x00130230      0x384 c:/intelfpga/18.1/embedded/host_tools/mentor/gnu/arm/baremetal/bin/../lib/gcc/arm-altera-eabi/6.2.0/../../../../arm-altera-eabi/lib\libc.a(lib_a-lcltime_r.o)
                0x00130230                localtime_r
 .text          0x001305b4       0xf4 c:/intelfpga/18.1/embedded/host_tools/mentor/gnu/arm/baremetal/bin/../lib/gcc/arm-altera-eabi/6.2.0/../../../../arm-altera-eabi/lib\libc.a(lib_a-locale.o)
                0x001305d8                _setlocale_r
                0x00130640                __locale_mb_cur_max
                0x00130668                __locale_ctype_ptr_l
                0x00130670                __locale_ctype_ptr
                0x00130688                setlocale
 .text          0x001306a8      0x18c c:/intelfpga/18.1/embedded/host_tools/mentor/gnu/arm/baremetal/bin/../lib/gcc/arm-altera-eabi/6.2.0/../../../../arm-altera-eabi/lib\libc.a(lib_a-makebuf.o)
                0x001306a8                __swhatbuf_r
                0x00130748                __smakebuf_r
 .text          0x00130834       0x38 c:/intelfpga/18.1/embedded/host_tools/mentor/gnu/arm/baremetal/bin/../lib/gcc/arm-altera-eabi/6.2.0/../../../../arm-altera-eabi/lib\libc.a(lib_a-malloc.o)
                0x00130834                malloc
                0x00130850                free
 .text          0x0013086c      0x750 c:/intelfpga/18.1/embedded/host_tools/mentor/gnu/arm/baremetal/bin/../lib/gcc/arm-altera-eabi/6.2.0/../../../../arm-altera-eabi/lib\libc.a(lib_a-mallocr.o)
                0x0013086c                _malloc_r
 .text          0x00130fbc       0xa0 c:/intelfpga/18.1/embedded/host_tools/mentor/gnu/arm/baremetal/bin/../lib/gcc/arm-altera-eabi/6.2.0/../../../../arm-altera-eabi/lib\libc.a(lib_a-mbtowc_r.o)
                0x00130fbc                _mbtowc_r
                0x00131010                __ascii_mbtowc
 .text          0x0013105c      0x114 c:/intelfpga/18.1/embedded/host_tools/mentor/gnu/arm/baremetal/bin/../lib/gcc/arm-altera-eabi/6.2.0/../../../../arm-altera-eabi/lib\libc.a(lib_a-memcpy-stub.o)
                0x0013105c                memcpy
 .text          0x00131170      0x148 c:/intelfpga/18.1/embedded/host_tools/mentor/gnu/arm/baremetal/bin/../lib/gcc/arm-altera-eabi/6.2.0/../../../../arm-altera-eabi/lib\libc.a(lib_a-memmove.o)
                0x00131170                memmove
 .text          0x001312b8      0x114 c:/intelfpga/18.1/embedded/host_tools/mentor/gnu/arm/baremetal/bin/../lib/gcc/arm-altera-eabi/6.2.0/../../../../arm-altera-eabi/lib\libc.a(lib_a-memset.o)
                0x001312b8                memset
 .text          0x001313cc      0x848 c:/intelfpga/18.1/embedded/host_tools/mentor/gnu/arm/baremetal/bin/../lib/gcc/arm-altera-eabi/6.2.0/../../../../arm-altera-eabi/lib\libc.a(lib_a-mktime.o)
                0x00131708                mktime
 .text          0x00131c14       0x30 c:/intelfpga/18.1/embedded/host_tools/mentor/gnu/arm/baremetal/bin/../lib/gcc/arm-altera-eabi/6.2.0/../../../../arm-altera-eabi/lib\libc.a(lib_a-mlock.o)
                0x00131c14                __malloc_lock
                0x00131c2c                __malloc_unlock
 .text.startup  0x00131c44       0x18 c:/intelfpga/18.1/embedded/host_tools/mentor/gnu/arm/baremetal/bin/../lib/gcc/arm-altera-eabi/6.2.0/../../../../arm-altera-eabi/lib\libc.a(lib_a-mlock.o)
 .text          0x00131c5c       0x6c c:/intelfpga/18.1/embedded/host_tools/mentor/gnu/arm/baremetal/bin/../lib/gcc/arm-altera-eabi/6.2.0/../../../../arm-altera-eabi/lib\libc.a(lib_a-printf.o)
                0x00131c5c                _printf_r
                0x00131c90                printf
 .text          0x00131cc8      0x12c c:/intelfpga/18.1/embedded/host_tools/mentor/gnu/arm/baremetal/bin/../lib/gcc/arm-altera-eabi/6.2.0/../../../../arm-altera-eabi/lib\libc.a(lib_a-puts.o)
                0x00131cc8                _puts_r
                0x00131ddc                puts
 .text          0x00131df4       0x6c c:/intelfpga/18.1/embedded/host_tools/mentor/gnu/arm/baremetal/bin/../lib/gcc/arm-altera-eabi/6.2.0/../../../../arm-altera-eabi/lib\libc.a(lib_a-rand.o)
                0x00131df4                srand
                0x00131e14                rand
 .text          0x00131e60      0x218 c:/intelfpga/18.1/embedded/host_tools/mentor/gnu/arm/baremetal/bin/../lib/gcc/arm-altera-eabi/6.2.0/../../../../arm-altera-eabi/lib\libc.a(lib_a-refill.o)
                0x00131e88                __srefill_r
 .text          0x00132078       0x58 c:/intelfpga/18.1/embedded/host_tools/mentor/gnu/arm/baremetal/bin/../lib/gcc/arm-altera-eabi/6.2.0/../../../../arm-altera-eabi/lib\libc.a(lib_a-rewind.o)
                0x00132078                _rewind_r
                0x001320a0                rewind
 .text          0x001320d0       0x6c c:/intelfpga/18.1/embedded/host_tools/mentor/gnu/arm/baremetal/bin/../lib/gcc/arm-altera-eabi/6.2.0/../../../../arm-altera-eabi/lib\libc.a(lib_a-rget.o)
                0x001320d0                __srget_r
                0x00132124                __srget
 .text          0x0013213c      0x258 c:/intelfpga/18.1/embedded/host_tools/mentor/gnu/arm/baremetal/bin/../lib/gcc/arm-altera-eabi/6.2.0/../../../../arm-altera-eabi/lib\libc.a(lib_a-setvbuf.o)
                0x0013213c                setvbuf
 .text          0x00132394       0xcc c:/intelfpga/18.1/embedded/host_tools/mentor/gnu/arm/baremetal/bin/../lib/gcc/arm-altera-eabi/6.2.0/../../../../arm-altera-eabi/lib\libc.a(lib_a-sprintf.o)
                0x00132394                _sprintf_r
                0x001323f8                sprintf
 .text          0x00132460       0xd8 c:/intelfpga/18.1/embedded/host_tools/mentor/gnu/arm/baremetal/bin/../lib/gcc/arm-altera-eabi/6.2.0/../../../../arm-altera-eabi/lib\libc.a(lib_a-stdio.o)
                0x00132460                __sread
                0x00132494                __seofread
                0x0013249c                __swrite
                0x001324f4                __sseek
                0x00132524                __sclose
 .text          0x00132538       0x74 c:/intelfpga/18.1/embedded/host_tools/mentor/gnu/arm/baremetal/bin/../lib/gcc/arm-altera-eabi/6.2.0/../../../../arm-altera-eabi/lib\libc.a(lib_a-stpcpy.o)
                0x00132538                stpcpy
 .text          0x001325ac       0x70 c:/intelfpga/18.1/embedded/host_tools/mentor/gnu/arm/baremetal/bin/../lib/gcc/arm-altera-eabi/6.2.0/../../../../arm-altera-eabi/lib\libc.a(lib_a-strcasecmp.o)
                0x001325ac                strcasecmp
 .text          0x0013261c      0x224 c:/intelfpga/18.1/embedded/host_tools/mentor/gnu/arm/baremetal/bin/../lib/gcc/arm-altera-eabi/6.2.0/../../../../arm-altera-eabi/lib\libc.a(lib_a-strcmp.o)
                0x0013261c                strcmp
 .text          0x00132840       0xf0 c:/intelfpga/18.1/embedded/host_tools/mentor/gnu/arm/baremetal/bin/../lib/gcc/arm-altera-eabi/6.2.0/../../../../arm-altera-eabi/lib\libc.a(lib_a-strcpy.o)
                0x00132840                strcpy
 .text          0x00132930       0x60 c:/intelfpga/18.1/embedded/host_tools/mentor/gnu/arm/baremetal/bin/../lib/gcc/arm-altera-eabi/6.2.0/../../../../arm-altera-eabi/lib\libc.a(lib_a-strlen-stub.o)
                0x00132930                strlen
 .text          0x00132990       0x94 c:/intelfpga/18.1/embedded/host_tools/mentor/gnu/arm/baremetal/bin/../lib/gcc/arm-altera-eabi/6.2.0/../../../../arm-altera-eabi/lib\libc.a(lib_a-strncasecmp.o)
                0x00132990                strncasecmp
 .text          0x00132a24       0xa0 c:/intelfpga/18.1/embedded/host_tools/mentor/gnu/arm/baremetal/bin/../lib/gcc/arm-altera-eabi/6.2.0/../../../../arm-altera-eabi/lib\libc.a(lib_a-strncat.o)
                0x00132a24                strncat
 .text          0x00132ac4      0x110 c:/intelfpga/18.1/embedded/host_tools/mentor/gnu/arm/baremetal/bin/../lib/gcc/arm-altera-eabi/6.2.0/../../../../arm-altera-eabi/lib\libc.a(lib_a-strncmp.o)
                0x00132ac4                strncmp
 .text          0x00132bd4       0xdc c:/intelfpga/18.1/embedded/host_tools/mentor/gnu/arm/baremetal/bin/../lib/gcc/arm-altera-eabi/6.2.0/../../../../arm-altera-eabi/lib\libc.a(lib_a-strncpy.o)
                0x00132bd4                strncpy
 .text          0x00132cb0       0x54 c:/intelfpga/18.1/embedded/host_tools/mentor/gnu/arm/baremetal/bin/../lib/gcc/arm-altera-eabi/6.2.0/../../../../arm-altera-eabi/lib\libc.a(lib_a-strrchr.o)
                0x00132cb0                strrchr
 .text          0x00132d04      0x834 c:/intelfpga/18.1/embedded/host_tools/mentor/gnu/arm/baremetal/bin/../lib/gcc/arm-altera-eabi/6.2.0/../../../../arm-altera-eabi/lib\libc.a(lib_a-strstr.o)
                0x001331c0                strstr
 .text          0x00133538      0x308 c:/intelfpga/18.1/embedded/host_tools/mentor/gnu/arm/baremetal/bin/../lib/gcc/arm-altera-eabi/6.2.0/../../../../arm-altera-eabi/lib\libc.a(lib_a-strtol.o)
                0x00133758                _strtol_r
                0x001337ac                strtol_l
                0x001337e8                strtol
 .text          0x00133840      0x3c8 c:/intelfpga/18.1/embedded/host_tools/mentor/gnu/arm/baremetal/bin/../lib/gcc/arm-altera-eabi/6.2.0/../../../../arm-altera-eabi/lib\libc.a(lib_a-strtoll.o)
                0x00133b20                _strtoll_r
                0x00133b74                strtoll_l
                0x00133bb0                strtoll
 .text          0x00133c08      0x2d0 c:/intelfpga/18.1/embedded/host_tools/mentor/gnu/arm/baremetal/bin/../lib/gcc/arm-altera-eabi/6.2.0/../../../../arm-altera-eabi/lib\libc.a(lib_a-strtoul.o)
                0x00133df0                _strtoul_r
                0x00133e44                strtoul_l
                0x00133e80                strtoul
 .text          0x00133ed8      0x360 c:/intelfpga/18.1/embedded/host_tools/mentor/gnu/arm/baremetal/bin/../lib/gcc/arm-altera-eabi/6.2.0/../../../../arm-altera-eabi/lib\libc.a(lib_a-strtoull.o)
                0x00134150                _strtoull_r
                0x001341a4                strtoull_l
                0x001341e0                strtoull
 .text          0x00134238     0x2030 c:/intelfpga/18.1/embedded/host_tools/mentor/gnu/arm/baremetal/bin/../lib/gcc/arm-altera-eabi/6.2.0/../../../../arm-altera-eabi/lib\libc.a(lib_a-svfprintf.o)
                0x00134238                _svfprintf_r
 .text          0x00136268       0x24 c:/intelfpga/18.1/embedded/host_tools/mentor/gnu/arm/baremetal/bin/../lib/gcc/arm-altera-eabi/6.2.0/../../../../arm-altera-eabi/lib\libc.a(lib_a-sysstat.o)
                0x00136268                stat
 .text          0x0013628c      0x238 c:/intelfpga/18.1/embedded/host_tools/mentor/gnu/arm/baremetal/bin/../lib/gcc/arm-altera-eabi/6.2.0/../../../../arm-altera-eabi/lib\libc.a(lib_a-tzcalc_limits.o)
                0x0013628c                __tzcalc_limits
 .text          0x001364c4       0x30 c:/intelfpga/18.1/embedded/host_tools/mentor/gnu/arm/baremetal/bin/../lib/gcc/arm-altera-eabi/6.2.0/../../../../arm-altera-eabi/lib\libc.a(lib_a-tzlock.o)
                0x001364c4                __tz_lock
                0x001364dc                __tz_unlock
 .text.startup  0x001364f4       0x18 c:/intelfpga/18.1/embedded/host_tools/mentor/gnu/arm/baremetal/bin/../lib/gcc/arm-altera-eabi/6.2.0/../../../../arm-altera-eabi/lib\libc.a(lib_a-tzlock.o)
 .text          0x0013650c       0x30 c:/intelfpga/18.1/embedded/host_tools/mentor/gnu/arm/baremetal/bin/../lib/gcc/arm-altera-eabi/6.2.0/../../../../arm-altera-eabi/lib\libc.a(lib_a-tzset.o)
                0x0013650c                _tzset_unlocked
                0x00136520                tzset
 .text          0x0013653c      0x4b4 c:/intelfpga/18.1/embedded/host_tools/mentor/gnu/arm/baremetal/bin/../lib/gcc/arm-altera-eabi/6.2.0/../../../../arm-altera-eabi/lib\libc.a(lib_a-tzset_r.o)
                0x0013653c                _tzset_unlocked_r
                0x001369d0                _tzset_r
 .text          0x001369f0      0x2f0 c:/intelfpga/18.1/embedded/host_tools/mentor/gnu/arm/baremetal/bin/../lib/gcc/arm-altera-eabi/6.2.0/../../../../arm-altera-eabi/lib\libc.a(lib_a-ungetc.o)
                0x001369f0                __submore
                0x00136aa0                _ungetc_r
                0x00136cc0                ungetc
 .text          0x00136ce0     0x22ec c:/intelfpga/18.1/embedded/host_tools/mentor/gnu/arm/baremetal/bin/../lib/gcc/arm-altera-eabi/6.2.0/../../../../arm-altera-eabi/lib\libc.a(lib_a-vfprintf.o)
                0x00136ce0                _vfprintf_r
                0x00138ed4                vfprintf
 .text          0x00138fcc     0x176c c:/intelfpga/18.1/embedded/host_tools/mentor/gnu/arm/baremetal/bin/../lib/gcc/arm-altera-eabi/6.2.0/../../../../arm-altera-eabi/lib\libc.a(lib_a-vfscanf.o)
                0x00138fcc                __svfscanf_r
                0x0013a698                vfscanf
                0x0013a6d8                __svfscanf
                0x0013a700                _vfscanf_r
 .text          0x0013a738      0x154 c:/intelfpga/18.1/embedded/host_tools/mentor/gnu/arm/baremetal/bin/../lib/gcc/arm-altera-eabi/6.2.0/../../../../arm-altera-eabi/lib\libc.a(lib_a-wbuf.o)
                0x0013a738                __swbuf_r
                0x0013a86c                __swbuf
 .text          0x0013a88c       0x74 c:/intelfpga/18.1/embedded/host_tools/mentor/gnu/arm/baremetal/bin/../lib/gcc/arm-altera-eabi/6.2.0/../../../../arm-altera-eabi/lib\libc.a(lib_a-wctomb_r.o)
                0x0013a88c                _wctomb_r
                0x0013a8d8                __ascii_wctomb
 .text          0x0013a900      0x158 c:/intelfpga/18.1/embedded/host_tools/mentor/gnu/arm/baremetal/bin/../lib/gcc/arm-altera-eabi/6.2.0/../../../../arm-altera-eabi/lib\libc.a(lib_a-wsetup.o)
                0x0013a900                __swsetup_r
 .text          0x0013aa58      0x184 c:/intelfpga/18.1/embedded/host_tools/mentor/gnu/arm/baremetal/bin/../lib/gcc/arm-altera-eabi/6.2.0/../../../../arm-altera-eabi/lib\libc.a(lib_a-__call_atexit.o)
                0x0013aa58                __call_exitprocs
 .text.startup  0x0013abdc       0x40 c:/intelfpga/18.1/embedded/host_tools/mentor/gnu/arm/baremetal/bin/../lib/gcc/arm-altera-eabi/6.2.0/../../../../arm-altera-eabi/lib\libc.a(lib_a-__call_atexit.o)
 .text          0x0013ac1c       0x20 c:/intelfpga/18.1/embedded/host_tools/mentor/gnu/arm/baremetal/bin/../lib/gcc/arm-altera-eabi/6.2.0/../../../../arm-altera-eabi/lib\libc.a(lib_a-atexit.o)
                0x0013ac1c                atexit
 .text          0x0013ac3c       0x64 c:/intelfpga/18.1/embedded/host_tools/mentor/gnu/arm/baremetal/bin/../lib/gcc/arm-altera-eabi/6.2.0/../../../../arm-altera-eabi/lib\libc.a(lib_a-div.o)
                0x0013ac3c                div
 .text          0x0013aca0     0x181c c:/intelfpga/18.1/embedded/host_tools/mentor/gnu/arm/baremetal/bin/../lib/gcc/arm-altera-eabi/6.2.0/../../../../arm-altera-eabi/lib\libc.a(lib_a-dtoa.o)
                0x0013ae80                _dtoa_r
 .text          0x0013c4bc       0x48 c:/intelfpga/18.1/embedded/host_tools/mentor/gnu/arm/baremetal/bin/../lib/gcc/arm-altera-eabi/6.2.0/../../../../arm-altera-eabi/lib\libc.a(lib_a-fini.o)
                0x0013c4bc                __libc_fini_array
 .text          0x0013c504       0xb8 c:/intelfpga/18.1/embedded/host_tools/mentor/gnu/arm/baremetal/bin/../lib/gcc/arm-altera-eabi/6.2.0/../../../../arm-altera-eabi/lib\libc.a(lib_a-flags.o)
                0x0013c504                __sflags
 .text          0x0013c5bc      0x4dc c:/intelfpga/18.1/embedded/host_tools/mentor/gnu/arm/baremetal/bin/../lib/gcc/arm-altera-eabi/6.2.0/../../../../arm-altera-eabi/lib\libc.a(lib_a-fvwrite.o)
                0x0013c5bc                __sfvwrite_r
 .text          0x0013ca98       0xec c:/intelfpga/18.1/embedded/host_tools/mentor/gnu/arm/baremetal/bin/../lib/gcc/arm-altera-eabi/6.2.0/../../../../arm-altera-eabi/lib\libc.a(lib_a-getenv_r.o)
                0x0013ca98                _findenv_r
                0x0013cb68                _getenv_r
 .text          0x0013cb84        0xc c:/intelfpga/18.1/embedded/host_tools/mentor/gnu/arm/baremetal/bin/../lib/gcc/arm-altera-eabi/6.2.0/../../../../arm-altera-eabi/lib\libc.a(lib_a-gettzinfo.o)
                0x0013cb84                __gettzinfo
 .text          0x0013cb90      0x260 c:/intelfpga/18.1/embedded/host_tools/mentor/gnu/arm/baremetal/bin/../lib/gcc/arm-altera-eabi/6.2.0/../../../../arm-altera-eabi/lib\libc.a(lib_a-gmtime_r.o)
                0x0013cb90                gmtime_r
 .text          0x0013cdf0       0x30 c:/intelfpga/18.1/embedded/host_tools/mentor/gnu/arm/baremetal/bin/../lib/gcc/arm-altera-eabi/6.2.0/../../../../arm-altera-eabi/lib\libc.a(lib_a-iswspace.o)
                0x0013cdf0                iswspace
 .text          0x0013ce20       0x58 c:/intelfpga/18.1/embedded/host_tools/mentor/gnu/arm/baremetal/bin/../lib/gcc/arm-altera-eabi/6.2.0/../../../../arm-altera-eabi/lib\libc.a(lib_a-localeconv.o)
                0x0013ce20                __localeconv_l
                0x0013ce28                _localeconv_r
                0x0013ce50                localeconv
 .text          0x0013ce78      0x170 c:/intelfpga/18.1/embedded/host_tools/mentor/gnu/arm/baremetal/bin/../lib/gcc/arm-altera-eabi/6.2.0/../../../../arm-altera-eabi/lib\libc.a(lib_a-mbrtowc.o)
                0x0013ce78                _mbrtowc_r
                0x0013cf2c                mbrtowc
 .text          0x0013cfe8      0x110 c:/intelfpga/18.1/embedded/host_tools/mentor/gnu/arm/baremetal/bin/../lib/gcc/arm-altera-eabi/6.2.0/../../../../arm-altera-eabi/lib\libc.a(lib_a-memchr-stub.o)
                0x0013cfe8                memchr
 .text          0x0013d0f8       0xf0 c:/intelfpga/18.1/embedded/host_tools/mentor/gnu/arm/baremetal/bin/../lib/gcc/arm-altera-eabi/6.2.0/../../../../arm-altera-eabi/lib\libc.a(lib_a-memcmp.o)
                0x0013d0f8                memcmp
 .text          0x0013d1e8      0xd98 c:/intelfpga/18.1/embedded/host_tools/mentor/gnu/arm/baremetal/bin/../lib/gcc/arm-altera-eabi/6.2.0/../../../../arm-altera-eabi/lib\libc.a(lib_a-mprec.o)
                0x0013d1e8                _Balloc
                0x0013d274                _Bfree
                0x0013d290                __multadd
                0x0013d36c                __s2b
                0x0013d45c                __hi0bits
                0x0013d4b4                __lo0bits
                0x0013d554                __i2b
                0x0013d578                __multiply
                0x0013d748                __pow5mult
                0x0013d84c                __lshift
                0x0013d934                __mcmp
                0x0013d994                __mdiff
                0x0013db3c                __ulp
                0x0013dba4                __b2d
                0x0013dc90                __d2b
                0x0013dda0                __ratio
                0x0013de30                _mprec_log10
                0x0013de90                __copybits
                0x0013df00                __any_on
 .text          0x0013df80      0x4d4 c:/intelfpga/18.1/embedded/host_tools/mentor/gnu/arm/baremetal/bin/../lib/gcc/arm-altera-eabi/6.2.0/../../../../arm-altera-eabi/lib\libc.a(lib_a-reallocr.o)
                0x0013df80                _realloc_r
 .text          0x0013e454       0xd0 c:/intelfpga/18.1/embedded/host_tools/mentor/gnu/arm/baremetal/bin/../lib/gcc/arm-altera-eabi/6.2.0/../../../../arm-altera-eabi/lib\libc.a(lib_a-sccl.o)
                0x0013e454                __sccl
 .text          0x0013e524        0xc c:/intelfpga/18.1/embedded/host_tools/mentor/gnu/arm/baremetal/bin/../lib/gcc/arm-altera-eabi/6.2.0/../../../../arm-altera-eabi/lib\libc.a(lib_a-sf_nan.o)
                0x0013e524                nanf
 .text          0x0013e530       0xf4 c:/intelfpga/18.1/embedded/host_tools/mentor/gnu/arm/baremetal/bin/../lib/gcc/arm-altera-eabi/6.2.0/../../../../arm-altera-eabi/lib\libc.a(lib_a-siscanf.o)
                0x0013e530                siscanf
                0x0013e5a4                _siscanf_r
 .text          0x0013e624      0x1ac c:/intelfpga/18.1/embedded/host_tools/mentor/gnu/arm/baremetal/bin/../lib/gcc/arm-altera-eabi/6.2.0/../../../../arm-altera-eabi/lib\libc.a(lib_a-strchr.o)
                0x0013e624                strchr
 .text          0x0013e7d0     0x188c c:/intelfpga/18.1/embedded/host_tools/mentor/gnu/arm/baremetal/bin/../lib/gcc/arm-altera-eabi/6.2.0/../../../../arm-altera-eabi/lib\libc.a(lib_a-strtod.o)
                0x0013e7d0                _strtod_l
                0x0013fe4c                _strtod_r
                0x0013fe88                strtod_l
                0x0013feb0                strtod
                0x0013fef0                strtof_l
                0x0013ff50                strtof
 .text.unlikely
                0x0014005c       0x6c c:/intelfpga/18.1/embedded/host_tools/mentor/gnu/arm/baremetal/bin/../lib/gcc/arm-altera-eabi/6.2.0/../../../../arm-altera-eabi/lib\libc.a(lib_a-strtod.o)
 .text          0x001400c8     0x11e0 c:/intelfpga/18.1/embedded/host_tools/mentor/gnu/arm/baremetal/bin/../lib/gcc/arm-altera-eabi/6.2.0/../../../../arm-altera-eabi/lib\libc.a(lib_a-svfiprintf.o)
                0x001400c8                __ssprint_r
                0x00140258                _svfiprintf_r
 .text          0x001412a8     0x11ac c:/intelfpga/18.1/embedded/host_tools/mentor/gnu/arm/baremetal/bin/../lib/gcc/arm-altera-eabi/6.2.0/../../../../arm-altera-eabi/lib\libc.a(lib_a-svfiscanf.o)
                0x001412a8                _sungetc_r
                0x00141398                __ssrefill_r
                0x00141404                _sfread_r
                0x001414d4                __ssvfiscanf_r
 .text          0x00142454     0x14c4 c:/intelfpga/18.1/embedded/host_tools/mentor/gnu/arm/baremetal/bin/../lib/gcc/arm-altera-eabi/6.2.0/../../../../arm-altera-eabi/lib\libc.a(lib_a-vfiprintf.o)
                0x00142504                __sprint_r
                0x0014251c                _vfiprintf_r
                0x00143820                vfiprintf
 .text          0x00143918       0xfc c:/intelfpga/18.1/embedded/host_tools/mentor/gnu/arm/baremetal/bin/../lib/gcc/arm-altera-eabi/6.2.0/../../../../arm-altera-eabi/lib\libc.a(lib_a-__atexit.o)
                0x00143918                __register_exitproc
 .text          0x00143a14       0x30 c:/intelfpga/18.1/embedded/host_tools/mentor/gnu/arm/baremetal/bin/../lib/gcc/arm-altera-eabi/6.2.0/../../../../arm-altera-eabi/lib\libc.a(lib_a-envlock.o)
                0x00143a14                __env_lock
                0x00143a2c                __env_unlock
 .text.startup  0x00143a44       0x18 c:/intelfpga/18.1/embedded/host_tools/mentor/gnu/arm/baremetal/bin/../lib/gcc/arm-altera-eabi/6.2.0/../../../../arm-altera-eabi/lib\libc.a(lib_a-envlock.o)
 .text          0x00143a5c      0x204 c:/intelfpga/18.1/embedded/host_tools/mentor/gnu/arm/baremetal/bin/../lib/gcc/arm-altera-eabi/6.2.0/../../../../arm-altera-eabi/lib\libc.a(lib_a-fputwc.o)
                0x00143a5c                __fputwc
                0x00143b6c                _fputwc_r
                0x00143c28                fputwc
 .text          0x00143c60      0x8fc c:/intelfpga/18.1/embedded/host_tools/mentor/gnu/arm/baremetal/bin/../lib/gcc/arm-altera-eabi/6.2.0/../../../../arm-altera-eabi/lib\libc.a(lib_a-gdtoa-gethex.o)
                0x00143d58                __gethex
 .text          0x0014455c      0x2dc c:/intelfpga/18.1/embedded/host_tools/mentor/gnu/arm/baremetal/bin/../lib/gcc/arm-altera-eabi/6.2.0/../../../../arm-altera-eabi/lib\libc.a(lib_a-gdtoa-hexnan.o)
                0x0014455c                __match
                0x001445c8                __hexnan
 .text          0x00144838      0x150 c:/intelfpga/18.1/embedded/host_tools/mentor/gnu/arm/baremetal/bin/../lib/gcc/arm-altera-eabi/6.2.0/../../../../arm-altera-eabi/lib\libc.a(lib_a-wcrtomb.o)
                0x00144838                _wcrtomb_r
                0x001448dc                wcrtomb
 .text          0x00144988      0x138 c:/intelfpga/18.1/embedded/host_tools/mentor/gnu/arm/baremetal/bin/../lib/gcc/arm-altera-eabi/6.2.0/../../../../arm-altera-eabi/lib\libm.a(lib_a-w_sqrt.o)
                0x00144988                sqrt
 .text          0x00144ac0      0x230 c:/intelfpga/18.1/embedded/host_tools/mentor/gnu/arm/baremetal/bin/../lib/gcc/arm-altera-eabi/6.2.0/../../../../arm-altera-eabi/lib\libm.a(lib_a-e_sqrt.o)
                0x00144ac0                __ieee754_sqrt
 .text          0x00144cf0        0x8 c:/intelfpga/18.1/embedded/host_tools/mentor/gnu/arm/baremetal/bin/../lib/gcc/arm-altera-eabi/6.2.0/../../../../arm-altera-eabi/lib\libm.a(lib_a-s_matherr.o)
                0x00144cf0                matherr
 .text          0x00144cf8      0x41c c:/intelfpga/18.1/embedded/host_tools/mentor/gnu/arm/baremetal/bin/../lib/gcc/arm-altera-eabi/6.2.0\libgcc.a(_arm_addsubdf3.o)
                0x00144cf8                __aeabi_drsub
                0x00144d00                __aeabi_dsub
                0x00144d00                __subdf3
                0x00144d04                __aeabi_dadd
                0x00144d04                __adddf3
                0x00145014                __floatunsidf
                0x00145014                __aeabi_ui2d
                0x00145038                __floatsidf
                0x00145038                __aeabi_i2d
                0x00145060                __aeabi_f2d
                0x00145060                __extendsfdf2
                0x001450a0                __floatundidf
                0x001450a0                __aeabi_ul2d
                0x001450b4                __floatdidf
                0x001450b4                __aeabi_l2d
 .text          0x00145114      0x49c c:/intelfpga/18.1/embedded/host_tools/mentor/gnu/arm/baremetal/bin/../lib/gcc/arm-altera-eabi/6.2.0\libgcc.a(_arm_muldivdf3.o)
                0x00145114                __aeabi_dmul
                0x00145114                __muldf3
                0x001453a4                __divdf3
                0x001453a4                __aeabi_ddiv
 .text          0x001455b0      0x144 c:/intelfpga/18.1/embedded/host_tools/mentor/gnu/arm/baremetal/bin/../lib/gcc/arm-altera-eabi/6.2.0\libgcc.a(_arm_cmpdf2.o)
                0x001455b0                __gtdf2
                0x001455b0                __gedf2
                0x001455b8                __ltdf2
                0x001455b8                __ledf2
                0x001455c0                __nedf2
                0x001455c0                __eqdf2
                0x001455c0                __cmpdf2
                0x00145648                __aeabi_cdrcmple
                0x00145664                __aeabi_cdcmpeq
                0x00145664                __aeabi_cdcmple
                0x0014567c                __aeabi_dcmpeq
                0x00145694                __aeabi_dcmplt
                0x001456ac                __aeabi_dcmple
                0x001456c4                __aeabi_dcmpge
                0x001456dc                __aeabi_dcmpgt
 .text          0x001456f4       0x38 c:/intelfpga/18.1/embedded/host_tools/mentor/gnu/arm/baremetal/bin/../lib/gcc/arm-altera-eabi/6.2.0\libgcc.a(_arm_unorddf2.o)
                0x001456f4                __unorddf2
                0x001456f4                __aeabi_dcmpun
 .text          0x0014572c       0x5c c:/intelfpga/18.1/embedded/host_tools/mentor/gnu/arm/baremetal/bin/../lib/gcc/arm-altera-eabi/6.2.0\libgcc.a(_arm_fixdfsi.o)
                0x0014572c                __aeabi_d2iz
                0x0014572c                __fixdfsi
 .text          0x00145788       0x54 c:/intelfpga/18.1/embedded/host_tools/mentor/gnu/arm/baremetal/bin/../lib/gcc/arm-altera-eabi/6.2.0\libgcc.a(_arm_fixunsdfsi.o)
                0x00145788                __aeabi_d2uiz
                0x00145788                __fixunsdfsi
 .text          0x001457dc       0xa0 c:/intelfpga/18.1/embedded/host_tools/mentor/gnu/arm/baremetal/bin/../lib/gcc/arm-altera-eabi/6.2.0\libgcc.a(_arm_truncdfsf2.o)
                0x001457dc                __truncdfsf2
                0x001457dc                __aeabi_d2f
 .text          0x0014587c      0x114 c:/intelfpga/18.1/embedded/host_tools/mentor/gnu/arm/baremetal/bin/../lib/gcc/arm-altera-eabi/6.2.0\libgcc.a(_arm_cmpsf2.o)
                0x0014587c                __gesf2
                0x0014587c                __gtsf2
                0x00145884                __lesf2
                0x00145884                __ltsf2
                0x0014588c                __nesf2
                0x0014588c                __eqsf2
                0x0014588c                __cmpsf2
                0x001458f0                __aeabi_cfrcmple
                0x00145900                __aeabi_cfcmpeq
                0x00145900                __aeabi_cfcmple
                0x00145918                __aeabi_fcmpeq
                0x00145930                __aeabi_fcmplt
                0x00145948                __aeabi_fcmple
                0x00145960                __aeabi_fcmpge
                0x00145978                __aeabi_fcmpgt
 .text          0x00145990       0x58 c:/intelfpga/18.1/embedded/host_tools/mentor/gnu/arm/baremetal/bin/../lib/gcc/arm-altera-eabi/6.2.0\libgcc.a(gthr-generic.o)
                0x00145990                __generic_gxx_active_p
                0x00145998                __generic_gxx_key_create
                0x001459a0                __generic_gxx_once
                0x001459a4                __generic_gxx_key_delete
                0x001459ac                __generic_gxx_getspecific
                0x001459b4                __generic_gxx_setspecific
                0x001459bc                __generic_gxx_recursive_mutex_init_function
                0x001459c0                __generic_gxx_mutex_init_function
                0x001459c4                __generic_gxx_recursive_mutex_destroy
                0x001459cc                __generic_gxx_recursive_mutex_unlock
                0x001459d0                __generic_gxx_recursive_mutex_trylock
                0x001459d4                __generic_gxx_recursive_mutex_lock
                0x001459d8                __generic_gxx_mutex_unlock
                0x001459dc                __generic_gxx_mutex_trylock
                0x001459e0                __generic_gxx_mutex_lock
                0x001459e4                __generic_gxx_mutex_destroy
 *(.plt)
 *(.gnu.warning)
 *(.glue_7t)
 .glue_7t       0x001459e8        0x0 linker stubs
 *(.glue_7)
 .glue_7        0x001459e8        0x0 linker stubs
 *(.vfp11_veneer)
 .vfp11_veneer  0x001459e8        0x0 linker stubs
 *(.ARM.extab* .gnu.linkonce.armextab.*)
 *(.gcc_except_table)

.v4_bx          0x001459e8        0x0
 .v4_bx         0x001459e8        0x0 linker stubs

.iplt           0x001459e8        0x0
 .iplt          0x001459e8        0x0 c:/intelfpga/18.1/embedded/host_tools/mentor/gnu/arm/baremetal/bin/../lib/gcc/arm-altera-eabi/6.2.0/crtbegin.o

.eh_frame_hdr
 *(.eh_frame_hdr)
 *(.eh_frame_entry .eh_frame_entry.*)

.eh_frame       0x001459e8        0x4
 *(.eh_frame)
 .eh_frame      0x001459e8        0x0 c:/intelfpga/18.1/embedded/host_tools/mentor/gnu/arm/baremetal/bin/../lib/gcc/arm-altera-eabi/6.2.0/crtbegin.o
 .eh_frame      0x001459e8        0x4 c:/intelfpga/18.1/embedded/host_tools/mentor/gnu/arm/baremetal/bin/../lib/gcc/arm-altera-eabi/6.2.0/crtend.o
 *(.eh_frame.*)
                [!provide]                PROVIDE (__exidx_start, .)

.ARM.exidx      0x001459ec        0x8
 *(.ARM.exidx* .gnu.linkonce.armexidx.*)
 .ARM.exidx     0x001459ec        0x8 c:/intelfpga/18.1/embedded/host_tools/mentor/gnu/arm/baremetal/bin/../lib/gcc/arm-altera-eabi/6.2.0\libgcc.a(_udivmoddi4.o)
                [!provide]                PROVIDE (__exidx_end, .)

.rel.dyn        0x001459f4        0x0
 .rel.iplt      0x001459f4        0x0 c:/intelfpga/18.1/embedded/host_tools/mentor/gnu/arm/baremetal/bin/../lib/gcc/arm-altera-eabi/6.2.0/crtbegin.o

.rodata         0x001459f8     0x50a8
 *(.rodata .rodata.* .gnu.linkonce.r.*)
 .rodata.main.str1.4
                0x001459f8       0x66 Main_mAbassi.o
 *fill*         0x00145a5e        0x2 
 .rodata        0x00145a60      0x18c MyApp_MTL2.o
 .rodata.ImageCreate.str1.4
                0x00145bec       0x25 MyApp_MTL2.o
 *fill*         0x00145c11        0x3 
 .rodata.ImageRead.str1.4
                0x00145c14      0x118 MyApp_MTL2.o
                                0x11c (size before relaxing)
 .rodata.Task_DMA.str1.4
                0x00145d2c       0xda MyApp_MTL2.o
 *fill*         0x00145e06        0x2 
 .rodata.Task_DisplayFile.str1.4
                0x00145e08      0x143 MyApp_MTL2.o
 *fill*         0x00145f4b        0x1 
 .rodata.Task_HPS_Led.str1.4
                0x00145f4c       0x69 MyApp_MTL2.o
 *fill*         0x00145fb5        0x3 
 .rodata.Task_MTL2.str1.4
                0x00145fb8       0x6b MyApp_MTL2.o
                                 0x6f (size before relaxing)
 *fill*         0x00146023        0x1 
 .rodata.Task_SPI.str1.4
                0x00146024       0x11 MyApp_MTL2.o
 *fill*         0x00146035        0x3 
 .rodata.Task_State.str1.4
                0x00146038       0x6f MyApp_MTL2.o
 *fill*         0x001460a7        0x1 
 .rodata.button_CallbackInterrupt.str1.4
                0x001460a8       0x22 MyApp_MTL2.o
 *fill*         0x001460ca        0x2 
 .rodata.cmd_ls.str1.4
                0x001460cc       0x94 MyApp_MTL2.o
 .rodata.delay_us.str1.4
                0x00146160       0x2d MyApp_MTL2.o
 *fill*         0x0014618d        0x3 
 .rodata.die.str1.4
                0x00146190        0x9 MyApp_MTL2.o
 *fill*         0x00146199        0x3 
 .rodata.spi_CallbackInterrupt.str1.4
                0x0014619c        0xf MyApp_MTL2.o
 *fill*         0x001461ab        0x1 
 .rodata.spi_Nios_CallbackInterrupt.str1.4
                0x001461ac       0x29 MyApp_MTL2.o
 .rodata.dma_init.str1.4
                0x001461d5       0x29 arm_pl330.o
                                  0x4 (size before relaxing)
 *fill*         0x001461d5        0x3 
 .rodata.g_DmaNames
                0x001461d8        0x5 arm_pl330.o
 *fill*         0x001461dd        0x3 
 .rodata.g_SemNames
                0x001461e0       0x38 arm_pl330.o
 .rodata.g_DMAchan
                0x00146218       0x20 dw_i2c.o
 .rodata.g_DevReMap
                0x00146238       0x10 dw_i2c.o
 .rodata.g_HWaddr
                0x00146248       0x10 dw_i2c.o
 .rodata.g_MuxIO
                0x00146258       0xc0 dw_i2c.o
 .rodata.g_Names
                0x00146318       0x40 dw_i2c.o
 .rodata.BSecho.7309
                0x00146358        0x2 dw_uart.o
 *fill*         0x0014635a        0x6 
 .rodata.g_DevReMap
                0x00146360        0x8 dw_uart.o
 .rodata.g_HWaddr
                0x00146368        0x8 dw_uart.o
 .rodata.g_Names
                0x00146370       0x40 dw_uart.o
 .rodata.MEDIAinfo.str1.4
                0x001463b0       0x10 MediaIF.o
 .rodata.MEDIAinit.str1.4
                0x001463c0       0x7b MediaIF.o
 *fill*         0x0014643b        0x1 
 .rodata.MEDIAread.str1.4
                0x0014643c       0x8b MediaIF.o
 *fill*         0x001464c7        0x1 
 .rodata.MEDIAwrite.str1.4
                0x001464c8       0x90 MediaIF.o
 .rodata.SDprepData.isra.1.constprop.6.str1.4
                0x00146558       0x9e dw_sdmmc.o
 *fill*         0x001465f6        0x2 
 .rodata.g_FreqBase
                0x001465f8       0x10 dw_sdmmc.o
 .rodata.g_Names
                0x00146608        0x8 dw_sdmmc.o
 .rodata.g_SpeedMult
                0x00146610       0x40 dw_sdmmc.o
 .rodata.mmc_init.str1.4
                0x00146650      0x53e dw_sdmmc.o
 *fill*         0x00146b8e        0x2 
 .rodata.mmc_sendcmd.constprop.3.str1.4
                0x00146b90       0x8f dw_sdmmc.o
 *fill*         0x00146c1f        0x1 
 .rodata.mmc_sendcmd.constprop.5.str1.4
                0x00146c20      0x159 dw_sdmmc.o
 *fill*         0x00146d79        0x3 
 .rodata.mmc_sendstatus.str1.4
                0x00146d7c       0x67 dw_sdmmc.o
 *fill*         0x00146de3        0x5 
 .rodata.ExCvt  0x00146de8       0x80 ff.o
 .rodata.LfnOfs
                0x00146e68        0xd ff.o
 *fill*         0x00146e75        0x3 
 .rodata.follow_path.str1.4
                0x00146e78       0x13 ff.o
 *fill*         0x00146e8b        0x5 
 .rodata.cvt1.7491
                0x00146e90      0x1f2 ffunicode.o
 *fill*         0x00147082        0x6 
 .rodata.cvt2.7492
                0x00147088       0xbc ffunicode.o
 *fill*         0x00147144        0x4 
 .rodata.uc437  0x00147148      0x100 ffunicode.o
 .rodata.g_Names
                0x00147248       0x10 Abassi_FatFS.o
 .rodata.disk_status.str1.4
                0x00147258       0x13 Media_FatFS.o
                                  0x6 (size before relaxing)
 .rodata.LogPath.str1.4
                0x00147258        0x4 SysCall_FatFS.o
                                  0x8 (size before relaxing)
 .rodata.RealPath.str1.4
                0x0014725c       0x15 SysCall_FatFS.o
 *fill*         0x00147271        0x3 
 .rodata.SysCallInit.str1.4
                0x00147274       0x27 SysCall_FatFS.o
 *fill*         0x0014729b        0x1 
 .rodata.fstatfs.str1.4
                0x0014729c       0x1e SysCall_FatFS.o
                                 0x25 (size before relaxing)
 *fill*         0x001472ba        0x2 
 .rodata.getcwd.str1.4
                0x001472bc        0x2 SysCall_FatFS.o
 *fill*         0x001472be        0x2 
 .rodata.OC_I2C_Read.str1.4
                0x001472c0       0x5f I2C_core.o
 *fill*         0x0014731f        0x1 
 .rodata.oc_i2c_init.str1.4
                0x00147320       0x34 I2C_core.o
 .rodata.G_ABORTstackSize
                0x00147354        0x4 mAbassiCfgA9.o
                0x00147354                G_ABORTstackSize
 .rodata.G_FIQstackSize
                0x00147358        0x4 mAbassiCfgA9.o
                0x00147358                G_FIQstackSize
 .rodata.G_IRQstackSize
                0x0014735c        0x4 mAbassiCfgA9.o
                0x0014735c                G_IRQstackSize
 .rodata.G_MMUnonCachedTbl
                0x00147360        0xc mAbassiCfgA9.o
                0x00147360                G_MMUnonCachedTbl
 *fill*         0x0014736c        0x4 
 .rodata.G_MMUnonCprivTbl
                0x00147370       0x10 mAbassiCfgA9.o
                0x00147370                G_MMUnonCprivTbl
 .rodata.G_MMUprivateTbl
                0x00147380       0x10 mAbassiCfgA9.o
                0x00147380                G_MMUprivateTbl
 .rodata.G_MMUsharedTbl
                0x00147390        0xc mAbassiCfgA9.o
                0x00147390                G_MMUsharedTbl
 .rodata.G_SUPERstackSize
                0x0014739c        0x4 mAbassiCfgA9.o
                0x0014739c                G_SUPERstackSize
 .rodata.G_UNDEFstackSize
                0x001473a0        0x4 mAbassiCfgA9.o
                0x001473a0                G_UNDEFstackSize
 .rodata.CmdEdit.str1.4
                0x001473a4      0x1a9 Shell.o
 *fill*         0x0014754d        0x3 
 .rodata.CmdEvt.str1.4
                0x00147550       0xf2 Shell.o
                                 0xf8 (size before relaxing)
 *fill*         0x00147642        0x2 
 .rodata.CmdGrp.str1.4
                0x00147644      0x38d Shell.o
                                0x391 (size before relaxing)
 *fill*         0x001479d1        0x3 
 .rodata.CmdHelp.str1.4
                0x001479d4      0x1ec Shell.o
 .rodata.CmdLog.str1.4
                0x00147bc0       0x36 Shell.o
 *fill*         0x00147bf6        0x2 
 .rodata.CmdMblk.str1.4
                0x00147bf8       0xc2 Shell.o
 *fill*         0x00147cba        0x2 
 .rodata.CmdMbx.str1.4
                0x00147cbc      0x50f Shell.o
                                0x514 (size before relaxing)
 *fill*         0x001481cb        0x1 
 .rodata.CmdMem.str1.4
                0x001481cc      0x188 Shell.o
 .rodata.CmdMtx.str1.4
                0x00148354      0x4e6 Shell.o
                                0x50a (size before relaxing)
 *fill*         0x0014883a        0x2 
 .rodata.CmdSem.str1.4
                0x0014883c      0x431 Shell.o
 *fill*         0x00148c6d        0x3 
 .rodata.CmdSys.str1.4
                0x00148c70      0x11c Shell.o
                                0x120 (size before relaxing)
 .rodata.CmdTask.str1.4
                0x00148d8c      0xc82 Shell.o
                                0xc9a (size before relaxing)
 *fill*         0x00149a0e        0x2 
 .rodata.CmdTim.str1.4
                0x00149a10      0x785 Shell.o
                                0x78d (size before relaxing)
 *fill*         0x0014a195        0x3 
 .rodata.CommandLst
                0x0014a198       0x70 Shell.o
 .rodata.OSshell.str1.4
                0x0014a208       0x55 Shell.o
 *fill*         0x0014a25d        0x3 
 .rodata.PrtResult.str1.4
                0x0014a260      0x1a9 Shell.o
                                0x1b1 (size before relaxing)
 *fill*         0x0014a409        0x7 
 .rodata.G_OSnoName
                0x0014a410        0x4 ../../mAbassi/Platform/lib\lib_mAbassi_EVAL_GCC_AR5_CY5.a(mAbassi_EVAL_A9_GCC_2_NR.o)
                0x0014a410                G_OSnoName
 *fill*         0x0014a414        0x4 
 .rodata.G_OSprivName
                0x0014a418        0x5 ../../mAbassi/Platform/lib\lib_mAbassi_EVAL_GCC_AR5_CY5.a(mAbassi_EVAL_A9_GCC_2_NR.o)
                0x0014a418                G_OSprivName
 *fill*         0x0014a41d        0x3 
 .rodata.OSstart.str1.4
                0x0014a420       0x14 ../../mAbassi/Platform/lib\lib_mAbassi_EVAL_GCC_AR5_CY5.a(mAbassi_EVAL_A9_GCC_2_NR.o)
 *fill*         0x0014a434        0x4 
 .rodata.g_OSMutexName
                0x0014a438        0x6 ../../mAbassi/Platform/lib\lib_mAbassi_EVAL_GCC_AR5_CY5.a(mAbassi_EVAL_A9_GCC_2_NR.o)
                0x0014a438                g_OSMutexName
 *fill*         0x0014a43e        0x2 
 .rodata        0x0014a440        0x4 c:/intelfpga/18.1/embedded/host_tools/mentor/gnu/arm/baremetal/bin/../lib/gcc/arm-altera-eabi/6.2.0/../../../../arm-altera-eabi/lib\libc.a(lib_a-impure.o)
                0x0014a440                _global_impure_ptr
 .rodata.str1.4
                0x0014a444        0xa c:/intelfpga/18.1/embedded/host_tools/mentor/gnu/arm/baremetal/bin/../lib/gcc/arm-altera-eabi/6.2.0/../../../../arm-altera-eabi/lib\libc.a(lib_a-locale.o)
                                 0x12 (size before relaxing)
 *fill*         0x0014a44e        0x2 
 .rodata        0x0014a450       0x60 c:/intelfpga/18.1/embedded/host_tools/mentor/gnu/arm/baremetal/bin/../lib/gcc/arm-altera-eabi/6.2.0/../../../../arm-altera-eabi/lib\libc.a(lib_a-mktime.o)
 .rodata        0x0014a4b0       0x60 c:/intelfpga/18.1/embedded/host_tools/mentor/gnu/arm/baremetal/bin/../lib/gcc/arm-altera-eabi/6.2.0/../../../../arm-altera-eabi/lib\libc.a(lib_a-month_lengths.o)
                0x0014a4b0                __month_lengths
 .rodata.str1.4
                0x0014a510        0xa c:/intelfpga/18.1/embedded/host_tools/mentor/gnu/arm/baremetal/bin/../lib/gcc/arm-altera-eabi/6.2.0/../../../../arm-altera-eabi/lib\libc.a(lib_a-puts.o)
                                  0x2 (size before relaxing)
 .rodata        0x0014a510       0x20 c:/intelfpga/18.1/embedded/host_tools/mentor/gnu/arm/baremetal/bin/../lib/gcc/arm-altera-eabi/6.2.0/../../../../arm-altera-eabi/lib\libc.a(lib_a-svfprintf.o)
 .rodata.str1.4
                0x0014a530       0x3f c:/intelfpga/18.1/embedded/host_tools/mentor/gnu/arm/baremetal/bin/../lib/gcc/arm-altera-eabi/6.2.0/../../../../arm-altera-eabi/lib\libc.a(lib_a-svfprintf.o)
                                 0x42 (size before relaxing)
 *fill*         0x0014a56f        0x1 
 .rodata.str1.4
                0x0014a570       0x53 c:/intelfpga/18.1/embedded/host_tools/mentor/gnu/arm/baremetal/bin/../lib/gcc/arm-altera-eabi/6.2.0/../../../../arm-altera-eabi/lib\libc.a(lib_a-tzset_r.o)
 .rodata.str1.4
                0x0014a5c3        0x4 c:/intelfpga/18.1/embedded/host_tools/mentor/gnu/arm/baremetal/bin/../lib/gcc/arm-altera-eabi/6.2.0/../../../../arm-altera-eabi/lib\libc.a(lib_a-tzvars.o)
 *fill*         0x0014a5c3        0x1 
 .rodata        0x0014a5c4       0x20 c:/intelfpga/18.1/embedded/host_tools/mentor/gnu/arm/baremetal/bin/../lib/gcc/arm-altera-eabi/6.2.0/../../../../arm-altera-eabi/lib\libc.a(lib_a-vfprintf.o)
 .rodata.str1.4
                0x0014a5e4       0x42 c:/intelfpga/18.1/embedded/host_tools/mentor/gnu/arm/baremetal/bin/../lib/gcc/arm-altera-eabi/6.2.0/../../../../arm-altera-eabi/lib\libc.a(lib_a-vfprintf.o)
 .rodata        0x0014a5e4       0x22 c:/intelfpga/18.1/embedded/host_tools/mentor/gnu/arm/baremetal/bin/../lib/gcc/arm-altera-eabi/6.2.0/../../../../arm-altera-eabi/lib\libc.a(lib_a-vfscanf.o)
 *fill*         0x0014a606        0x2 
 .rodata.str1.4
                0x0014a608        0x5 c:/intelfpga/18.1/embedded/host_tools/mentor/gnu/arm/baremetal/bin/../lib/gcc/arm-altera-eabi/6.2.0/../../../../arm-altera-eabi/lib\libc.a(lib_a-vfscanf.o)
 *fill*         0x0014a60d        0x3 
 .rodata        0x0014a610      0x101 c:/intelfpga/18.1/embedded/host_tools/mentor/gnu/arm/baremetal/bin/../lib/gcc/arm-altera-eabi/6.2.0/../../../../arm-altera-eabi/lib\libc.a(lib_a-ctype_.o)
                0x0014a610                _ctype_
 *fill*         0x0014a711        0x3 
 .rodata.str1.4
                0x0014a714       0x10 c:/intelfpga/18.1/embedded/host_tools/mentor/gnu/arm/baremetal/bin/../lib/gcc/arm-altera-eabi/6.2.0/../../../../arm-altera-eabi/lib\libc.a(lib_a-dtoa.o)
                                 0x12 (size before relaxing)
 .rodata.str1.4
                0x0014a724        0x1 c:/intelfpga/18.1/embedded/host_tools/mentor/gnu/arm/baremetal/bin/../lib/gcc/arm-altera-eabi/6.2.0/../../../../arm-altera-eabi/lib\libc.a(lib_a-mbrtowc.o)
 *fill*         0x0014a724        0x4 
 .rodata        0x0014a728      0x128 c:/intelfpga/18.1/embedded/host_tools/mentor/gnu/arm/baremetal/bin/../lib/gcc/arm-altera-eabi/6.2.0/../../../../arm-altera-eabi/lib\libc.a(lib_a-mprec.o)
                0x0014a738                __mprec_tens
                0x0014a800                __mprec_tinytens
                0x0014a828                __mprec_bigtens
 .rodata        0x0014a850       0x50 c:/intelfpga/18.1/embedded/host_tools/mentor/gnu/arm/baremetal/bin/../lib/gcc/arm-altera-eabi/6.2.0/../../../../arm-altera-eabi/lib\libc.a(lib_a-strtod.o)
 .rodata.str1.4
                0x0014a8a0        0xf c:/intelfpga/18.1/embedded/host_tools/mentor/gnu/arm/baremetal/bin/../lib/gcc/arm-altera-eabi/6.2.0/../../../../arm-altera-eabi/lib\libc.a(lib_a-strtod.o)
 *fill*         0x0014a8af        0x1 
 .rodata        0x0014a8b0       0x20 c:/intelfpga/18.1/embedded/host_tools/mentor/gnu/arm/baremetal/bin/../lib/gcc/arm-altera-eabi/6.2.0/../../../../arm-altera-eabi/lib\libc.a(lib_a-svfiprintf.o)
 .rodata.str1.4
                0x0014a8d0       0x2f c:/intelfpga/18.1/embedded/host_tools/mentor/gnu/arm/baremetal/bin/../lib/gcc/arm-altera-eabi/6.2.0/../../../../arm-altera-eabi/lib\libc.a(lib_a-svfiprintf.o)
 .rodata        0x0014a8d0       0x22 c:/intelfpga/18.1/embedded/host_tools/mentor/gnu/arm/baremetal/bin/../lib/gcc/arm-altera-eabi/6.2.0/../../../../arm-altera-eabi/lib\libc.a(lib_a-svfiscanf.o)
 *fill*         0x0014a8f2        0x2 
 .rodata        0x0014a8f4       0x20 c:/intelfpga/18.1/embedded/host_tools/mentor/gnu/arm/baremetal/bin/../lib/gcc/arm-altera-eabi/6.2.0/../../../../arm-altera-eabi/lib\libc.a(lib_a-vfiprintf.o)
 .rodata.str1.4
                0x0014a914       0x2f c:/intelfpga/18.1/embedded/host_tools/mentor/gnu/arm/baremetal/bin/../lib/gcc/arm-altera-eabi/6.2.0/../../../../arm-altera-eabi/lib\libc.a(lib_a-vfiprintf.o)
 .rodata        0x0014a914      0x100 c:/intelfpga/18.1/embedded/host_tools/mentor/gnu/arm/baremetal/bin/../lib/gcc/arm-altera-eabi/6.2.0/../../../../arm-altera-eabi/lib\libc.a(lib_a-gdtoa-gethex.o)
                0x0014a914                __hexdig
 .rodata.str1.4
                0x0014aa14        0x8 c:/intelfpga/18.1/embedded/host_tools/mentor/gnu/arm/baremetal/bin/../lib/gcc/arm-altera-eabi/6.2.0/../../../../arm-altera-eabi/lib\libm.a(lib_a-w_sqrt.o)
                                  0x5 (size before relaxing)
                0x0014aa1c                . = ALIGN (0x4)
 *(.init)
 .init          0x0014aa1c        0xc c:/intelfpga/18.1/embedded/host_tools/mentor/gnu/arm/baremetal/bin/../lib/gcc/arm-altera-eabi/6.2.0/crti.o
                0x0014aa1c                _init
 .init          0x0014aa28        0xc c:/intelfpga/18.1/embedded/host_tools/mentor/gnu/arm/baremetal/bin/../lib/gcc/arm-altera-eabi/6.2.0/crtn.o
                0x0014aa34                . = ALIGN (0x4)
                0x0014aa34                __preinit_array_start = .
 *(.preinit_array)
 .preinit_array
                0x0014aa34        0x4 c:/intelfpga/18.1/embedded/host_tools/mentor/gnu/arm/baremetal/bin/../lib/gcc/arm-altera-eabi/6.2.0/../../../../arm-altera-eabi/lib\libcs3.a(cycloneV-dk-reset-ram.o)
                0x0014aa38                __preinit_array_end = .
                0x0014aa38                . = ALIGN (0x4)
                0x0014aa38                __init_array_start = .
 *(SORT(.init_array.*))
 .init_array.00000
                0x0014aa38        0x8 c:/intelfpga/18.1/embedded/host_tools/mentor/gnu/arm/baremetal/bin/../lib/gcc/arm-altera-eabi/6.2.0/../../../../arm-altera-eabi/lib\libc.a(lib_a-findfp.o)
 .init_array.00000
                0x0014aa40        0x4 c:/intelfpga/18.1/embedded/host_tools/mentor/gnu/arm/baremetal/bin/../lib/gcc/arm-altera-eabi/6.2.0/../../../../arm-altera-eabi/lib\libc.a(lib_a-mlock.o)
 .init_array.00000
                0x0014aa44        0x4 c:/intelfpga/18.1/embedded/host_tools/mentor/gnu/arm/baremetal/bin/../lib/gcc/arm-altera-eabi/6.2.0/../../../../arm-altera-eabi/lib\libc.a(lib_a-tzlock.o)
 .init_array.00000
                0x0014aa48        0x4 c:/intelfpga/18.1/embedded/host_tools/mentor/gnu/arm/baremetal/bin/../lib/gcc/arm-altera-eabi/6.2.0/../../../../arm-altera-eabi/lib\libc.a(lib_a-__call_atexit.o)
 .init_array.00000
                0x0014aa4c        0x4 c:/intelfpga/18.1/embedded/host_tools/mentor/gnu/arm/baremetal/bin/../lib/gcc/arm-altera-eabi/6.2.0/../../../../arm-altera-eabi/lib\libc.a(lib_a-envlock.o)
 .init_array.00001
                0x0014aa50        0x4 c:/intelfpga/18.1/embedded/host_tools/mentor/gnu/arm/baremetal/bin/../lib/gcc/arm-altera-eabi/6.2.0/../../../../arm-altera-eabi/lib\libc.a(lib_a-__call_atexit.o)
 *(.init_array)
 .init_array    0x0014aa54        0x4 c:/intelfpga/18.1/embedded/host_tools/mentor/gnu/arm/baremetal/bin/../lib/gcc/arm-altera-eabi/6.2.0/crtbegin.o
                0x0014aa58                __init_array_end = .
                0x0014aa58                . = ALIGN (0x4)
 *(.fini)
 .fini          0x0014aa58        0xc c:/intelfpga/18.1/embedded/host_tools/mentor/gnu/arm/baremetal/bin/../lib/gcc/arm-altera-eabi/6.2.0/crti.o
                0x0014aa58                _fini
 .fini          0x0014aa64        0xc c:/intelfpga/18.1/embedded/host_tools/mentor/gnu/arm/baremetal/bin/../lib/gcc/arm-altera-eabi/6.2.0/crtn.o
                0x0014aa70                . = ALIGN (0x4)
                0x0014aa70                __fini_array_start = .
 *(.fini_array)
 .fini_array    0x0014aa70        0x4 c:/intelfpga/18.1/embedded/host_tools/mentor/gnu/arm/baremetal/bin/../lib/gcc/arm-altera-eabi/6.2.0/crtbegin.o
 *(SORT(.fini_array.*))
                0x0014aa74                __fini_array_end = .
                0x0014aa74                . = ALIGN (0x4)
 *crtbegin.o(.ctors)
 *(EXCLUDE_FILE(*crtend.o) .ctors)
 *(SORT(.ctors.*))
 *crtend.o(.ctors)
                0x0014aa74                . = ALIGN (0x4)
 *crtbegin.o(.dtors)
 *(EXCLUDE_FILE(*crtend.o) .dtors)
 *(SORT(.dtors.*))
 *crtend.o(.dtors)
                0x0014aa74                . = ALIGN (0x4)
                0x0014aa74                __cs3_regions = .
                0x0014aa74        0x4 LONG 0x0
                0x0014aa78        0x4 LONG 0xffff0000 __cs3_region_init_oc_ram
                0x0014aa7c        0x4 LONG 0xffff0000 __cs3_region_start_oc_ram
                0x0014aa80        0x4 LONG 0x0 __cs3_region_init_size_oc_ram
                0x0014aa84        0x4 LONG 0x0 __cs3_region_zero_size_oc_ram
                0x0014aa88        0x4 LONG 0x0
                0x0014aa8c        0x4 LONG 0x100040 __cs3_region_init_ram
                0x0014aa90        0x4 LONG 0x100040 __cs3_region_start_ram
                0x0014aa94        0x4 LONG 0x4b5b0 __cs3_region_init_size_ram
                0x0014aa98        0x4 LONG 0x3ca88 __cs3_region_zero_size_ram
                0x0014aa9c                __cs3_regions_end = .
                0x0014aaa0                . = ALIGN (0x8)
 *fill*         0x0014aa9c        0x4 
                0x0014aaa0                _etext = .
                0x00000001                ASSERT (! ((__cs3_region_init_oc_ram & 0x7)), __cs3_region_init_oc_ram not aligned)
                0x00000001                ASSERT (! ((__cs3_region_start_oc_ram & 0x7)), __cs3_region_start_oc_ram not aligned)
                0x00000001                ASSERT (! ((__cs3_region_init_size_oc_ram & 0x7)), __cs3_region_init_size_oc_ram not aligned)
                0x00000001                ASSERT (! ((__cs3_region_zero_size_oc_ram & 0x7)), __cs3_region_zero_size_oc_ram not aligned)
                0x00000001                ASSERT (! ((__cs3_region_init_ram & 0x7)), __cs3_region_init_ram not aligned)
                0x00000001                ASSERT (! ((__cs3_region_start_ram & 0x7)), __cs3_region_start_ram not aligned)
                0x00000001                ASSERT (! ((__cs3_region_init_size_ram & 0x7)), __cs3_region_init_size_ram not aligned)
                0x00000001                ASSERT (! ((__cs3_region_zero_size_ram & 0x7)), __cs3_region_zero_size_ram not aligned)

.cs3.boot_rom   0xfffd0000        0x0
                0xfffd0000                __cs3_region_start_boot_rom = .
 *(.cs3.region-head.boot_rom)
 *(.boot_rom)
                0xfffd0000                . = ALIGN (0x8)

.cs3.boot_rom.bss
                0xfffd0000        0x0
 *(.boot_rom.b .bss.boot_rom)
                0xfffd0000                . = ALIGN (0x8)
                0xfffe0000                __cs3_region_end_boot_rom = (__cs3_region_start_boot_rom + LENGTH (boot_rom))
                0x00010000                __cs3_region_size_boot_rom = LENGTH (boot_rom)
                0xfffd0000                __cs3_region_init_boot_rom = LOADADDR (.cs3.boot_rom)
                0x00000000                __cs3_region_init_size_boot_rom = (LOADADDR (.cs3.boot_rom.bss) - LOADADDR (.cs3.boot_rom))
                0x00000000                __cs3_region_zero_size_boot_rom = SIZEOF (.cs3.boot_rom.bss)

.cs3.oc_ram     0xffff0000        0x0
                0xffff0000                __cs3_region_start_oc_ram = .
 *(.cs3.region-head.oc_ram)
 *(.oc_ram)
                0xffff0000                . = ALIGN (0x8)

.cs3.oc_ram.bss
                0xffff0000        0x0
 *(.oc_ram.b .bss.oc_ram)
                0xffff0000                . = ALIGN (0x8)
                0x00000000                __cs3_region_end_oc_ram = (__cs3_region_start_oc_ram + LENGTH (oc_ram))
                0x00010000                __cs3_region_size_oc_ram = LENGTH (oc_ram)
                0xffff0000                __cs3_region_init_oc_ram = LOADADDR (.cs3.oc_ram)
                0x00000000                __cs3_region_init_size_oc_ram = (LOADADDR (.cs3.oc_ram.bss) - LOADADDR (.cs3.oc_ram))
                0x00000000                __cs3_region_zero_size_oc_ram = SIZEOF (.cs3.oc_ram.bss)

.data           0x0014aaa0      0xb50
 *(.jcr)
 .jcr           0x0014aaa0        0x0 c:/intelfpga/18.1/embedded/host_tools/mentor/gnu/arm/baremetal/bin/../lib/gcc/arm-altera-eabi/6.2.0/crtbegin.o
 .jcr           0x0014aaa0        0x4 c:/intelfpga/18.1/embedded/host_tools/mentor/gnu/arm/baremetal/bin/../lib/gcc/arm-altera-eabi/6.2.0/crtend.o
 *(.got.plt)
 *(.got)
 *(.shdata)
 *(.data .data.* .gnu.linkonce.d.*)
 .data.fpga_buttons
                0x0014aaa4        0x4 MyApp_MTL2.o
                0x0014aaa4                fpga_buttons
 .data.fpga_i2c
                0x0014aaa8        0x4 MyApp_MTL2.o
                0x0014aaa8                fpga_i2c
 .data.fpga_leds
                0x0014aaac        0x4 MyApp_MTL2.o
                0x0014aaac                fpga_leds
 .data.fpga_mtc2
                0x0014aab0        0x4 MyApp_MTL2.o
                0x0014aab0                fpga_mtc2
 .data.fpga_spi
                0x0014aab4        0x4 MyApp_MTL2.o
                0x0014aab4                fpga_spi
 .data.spi_rx   0x0014aab8        0x4 MyApp_MTL2.o
                0x0014aab8                spi_rx
 .data.InitFlag.8591
                0x0014aabc        0x4 gui.o
 .data.pos.8625
                0x0014aac0       0x14 gui.o
 *fill*         0x0014aad4        0x4 
 .data.szPallete
                0x0014aad8       0x24 gui.o
                0x0014aad8                szPallete
 .data.alt_ext_clk_paramblok
                0x0014aafc       0x40 alt_clock_manager.o
 .data.alt_pll_clk_paramblok
                0x0014ab3c       0x60 alt_clock_manager.o
 *fill*         0x0014ab9c        0x4 
 .data.ExpiryCnt.7521
                0x0014aba0        0x8 ../../mAbassi/Platform/lib\lib_mAbassi_EVAL_GCC_AR5_CY5.a(mAbassi_EVAL_A9_GCC_2_NR.o)
 .data.ExpiryPrv.7522
                0x0014aba8        0x8 ../../mAbassi/Platform/lib\lib_mAbassi_EVAL_GCC_AR5_CY5.a(mAbassi_EVAL_A9_GCC_2_NR.o)
 .data          0x0014abb0       0x3c ../../mAbassi/Platform/lib\lib_mAbassi_EVAL_GCC_AR5_CY5.a(mAbassi_EVAL_GCC_AR5_CY5_NR.o)
                0x0014abb4                DATAabort_Handler
                0x0014abb4                __cs3_isr_dabort
                0x0014abc8                FIQ_Handler
                0x0014abc8                __cs3_isr_fiq
                0x0014abcc                __cs3_isr_pabort
                0x0014abcc                PFabort_Handler
                0x0014abdc                __cs3_isr_undef
                0x0014abdc                Undef_Handler
 *fill*         0x0014abec        0x4 
 .data          0x0014abf0      0x430 c:/intelfpga/18.1/embedded/host_tools/mentor/gnu/arm/baremetal/bin/../lib/gcc/arm-altera-eabi/6.2.0/../../../../arm-altera-eabi/lib\libc.a(lib_a-impure.o)
                0x0014abf0                _impure_ptr
 .data          0x0014b020      0x16c c:/intelfpga/18.1/embedded/host_tools/mentor/gnu/arm/baremetal/bin/../lib/gcc/arm-altera-eabi/6.2.0/../../../../arm-altera-eabi/lib\libc.a(lib_a-locale.o)
                0x0014b020                __global_locale
 .data          0x0014b18c      0x410 c:/intelfpga/18.1/embedded/host_tools/mentor/gnu/arm/baremetal/bin/../lib/gcc/arm-altera-eabi/6.2.0/../../../../arm-altera-eabi/lib\libc.a(lib_a-mallocr.o)
                0x0014b18c                __malloc_av_
                0x0014b594                __malloc_sbrk_base
                0x0014b598                __malloc_trim_threshold
 .data          0x0014b59c        0x8 c:/intelfpga/18.1/embedded/host_tools/mentor/gnu/arm/baremetal/bin/../lib/gcc/arm-altera-eabi/6.2.0/../../../../arm-altera-eabi/lib\libc.a(lib_a-tzvars.o)
                0x0014b59c                _tzname
 .data          0x0014b5a4       0x40 c:/intelfpga/18.1/embedded/host_tools/mentor/gnu/arm/baremetal/bin/../lib/gcc/arm-altera-eabi/6.2.0/../../../../arm-altera-eabi/lib\libc.a(lib_a-gettzinfo.o)
 .data          0x0014b5e4        0x4 c:/intelfpga/18.1/embedded/host_tools/mentor/gnu/arm/baremetal/bin/../lib/gcc/arm-altera-eabi/6.2.0/../../../../arm-altera-eabi/lib\libc.a(lib_a-environ.o)
                0x0014b5e4                environ
 .data          0x0014b5e8        0x1 c:/intelfpga/18.1/embedded/host_tools/mentor/gnu/arm/baremetal/bin/../lib/gcc/arm-altera-eabi/6.2.0/../../../../arm-altera-eabi/lib\libm.a(lib_a-s_lib_ver.o)
                0x0014b5e8                __fdlib_version
                0x0014b5f0                . = ALIGN (0x8)
 *fill*         0x0014b5e9        0x7 
 *(.ram)
                0x0014b5f0                . = ALIGN (0x8)
                0x0014b5f0                _edata = .

.tm_clone_table
                0x0014b5f0        0x0
 .tm_clone_table
                0x0014b5f0        0x0 c:/intelfpga/18.1/embedded/host_tools/mentor/gnu/arm/baremetal/bin/../lib/gcc/arm-altera-eabi/6.2.0/crtbegin.o
 .tm_clone_table
                0x0014b5f0        0x0 c:/intelfpga/18.1/embedded/host_tools/mentor/gnu/arm/baremetal/bin/../lib/gcc/arm-altera-eabi/6.2.0/crtend.o

.igot.plt       0x0014b5f0        0x0
 .igot.plt      0x0014b5f0        0x0 c:/intelfpga/18.1/embedded/host_tools/mentor/gnu/arm/baremetal/bin/../lib/gcc/arm-altera-eabi/6.2.0/crtbegin.o

.bss            0x0014b600    0x3ca78
 *(.shbss)
 *(.bss .bss.* .gnu.linkonce.b.*)
 .bss           0x0014b600       0x1c c:/intelfpga/18.1/embedded/host_tools/mentor/gnu/arm/baremetal/bin/../lib/gcc/arm-altera-eabi/6.2.0/crtbegin.o
 .bss.G_UartDevErr
                0x0014b61c        0x4 Main_mAbassi.o
                0x0014b61c                G_UartDevErr
 .bss.G_UartDevIn
                0x0014b620        0x4 Main_mAbassi.o
                0x0014b620                G_UartDevIn
 .bss.G_UartDevOut
                0x0014b624        0x4 Main_mAbassi.o
                0x0014b624                G_UartDevOut
 .bss.bu_landscape
                0x0014b628        0xc MyApp_MTL2.o
                0x0014b628                bu_landscape
 .bss.diskReady
                0x0014b634        0x4 MyApp_MTL2.o
                0x0014b634                diskReady
 .bss.gameFinished
                0x0014b638        0x4 MyApp_MTL2.o
                0x0014b638                gameFinished
 .bss.isSongSelected
                0x0014b63c        0x4 MyApp_MTL2.o
                0x0014b63c                isSongSelected
 .bss.landscape
                0x0014b640        0xc MyApp_MTL2.o
                0x0014b640                landscape
 .bss.loadingImages
                0x0014b64c        0x4 MyApp_MTL2.o
                0x0014b64c                loadingImages
 .bss.myFrameBuffer
                0x0014b650        0x4 MyApp_MTL2.o
                0x0014b650                myFrameBuffer
 .bss.myTouch   0x0014b654        0x4 MyApp_MTL2.o
                0x0014b654                myTouch
 .bss.niosFinished
                0x0014b658        0x4 MyApp_MTL2.o
                0x0014b658                niosFinished
 .bss.pos       0x0014b65c        0x4 MyApp_MTL2.o
                0x0014b65c                pos
 .bss.previousBuffer
                0x0014b660        0x4 MyApp_MTL2.o
                0x0014b660                previousBuffer
 .bss.role      0x0014b664        0x4 MyApp_MTL2.o
                0x0014b664                role
 .bss.score     0x0014b668        0x4 MyApp_MTL2.o
                0x0014b668                score
 .bss.songInt   0x0014b66c        0x4 MyApp_MTL2.o
                0x0014b66c                songInt
 .bss.songSentToNios
                0x0014b670        0x4 MyApp_MTL2.o
                0x0014b670                songSentToNios
 .bss.spiNiosReady
                0x0014b674        0x4 MyApp_MTL2.o
                0x0014b674                spiNiosReady
 .bss.state     0x0014b678        0x4 MyApp_MTL2.o
                0x0014b678                state
 .bss.winStatus
                0x0014b67c        0x4 MyApp_MTL2.o
                0x0014b67c                winStatus
 .bss.winStatus2
                0x0014b680        0x4 MyApp_MTL2.o
                0x0014b680                winStatus2
 .bss.g_GPIOinit
                0x0014b684        0x4 alt_gpio.o
 .bss.g_CfgIsInit
                0x0014b688        0x4 arm_pl330.o
 .bss.g_DMAcfg  0x0014b68c     0x46a0 arm_pl330.o
                0x0014b68c                g_DMAcfg
 .bss.g_MyMutex
                0x0014fd2c        0x4 arm_pl330.o
                0x0014fd2c                g_MyMutex
 .bss.g_CfgIsInit
                0x0014fd30        0x4 dw_i2c.o
 *fill*         0x0014fd34        0x4 
 .bss.g_DumVal  0x0014fd38       0x20 dw_i2c.o
 .bss.g_Dummy   0x0014fd58        0x4 dw_i2c.o
 .bss.g_I2Ccfg  0x0014fd5c      0x100 dw_i2c.o
 .bss.g_CfgIsInit
                0x0014fe5c        0x4 dw_uart.o
 .bss.g_UARTcfg
                0x0014fe60     0x2088 dw_uart.o
 .bss.g_MediaIsOK
                0x00151ee8       0x10 MediaIF.o
 .bss.g_MemDrvSize
                0x00151ef8        0x4 MediaIF.o
 .bss.g_CfgIsInit
                0x00151efc        0x4 dw_sdmmc.o
 .bss.g_DMAdesc
                0x00151f00      0x400 dw_sdmmc.o
 .bss.g_DMAscratch
                0x00152300       0x40 dw_sdmmc.o
 .bss.g_MMCcfg  0x00152340       0x78 dw_sdmmc.o
 .bss.CurrVol   0x001523b8        0x1 ff.o
 *fill*         0x001523b9        0x7 
 .bss.FatFs     0x001523c0        0x8 ff.o
 .bss.Files     0x001523c8       0x80 ff.o
 .bss.Fsid      0x00152448        0x2 ff.o
 *fill*         0x0015244a        0x2 
 .bss.g_IsInitPark
                0x0015244c        0x4 Abassi_FatFS.o
 .bss.g_Parking
                0x00152450        0x8 Abassi_FatFS.o
 .bss.g_GlbMtx  0x00152458        0x4 SysCall_FatFS.o
 *fill*         0x0015245c        0x4 
 .bss.g_SysDir  0x00152460      0x9d0 SysCall_FatFS.o
 .bss.g_SysFile
                0x00152e30     0x5c58 SysCall_FatFS.o
 *fill*         0x00158a88       0x18 
 .bss.g_SysMnt  0x00158aa0     0x2500 SysCall_FatFS.o
 .bss.ColorPen0.8614
                0x0015afa0        0x4 gui.o
 .bss.DeskInfo.8592
                0x0015afa4       0xd8 gui.o
 .bss.Event.8610
                0x0015b07c        0x1 gui.o
 *fill*         0x0015b07d        0x3 
 .bss.Pt1.8604  0x0015b080        0x8 gui.o
 .bss.Pt2.8605  0x0015b088        0x8 gui.o
 .bss.TouchNum.8611
                0x0015b090        0x1 gui.o
 *fill*         0x0015b091        0x3 
 .bss.X1.8594   0x0015b094        0x4 gui.o
 .bss.X2.8596   0x0015b098        0x4 gui.o
 .bss.X3.8598   0x0015b09c        0x4 gui.o
 .bss.X4.8600   0x0015b0a0        0x4 gui.o
 .bss.X5.8602   0x0015b0a4        0x4 gui.o
 .bss.Y1.8595   0x0015b0a8        0x4 gui.o
 .bss.Y2.8597   0x0015b0ac        0x4 gui.o
 .bss.Y3.8599   0x0015b0b0        0x4 gui.o
 .bss.Y4.8601   0x0015b0b4        0x4 gui.o
 .bss.Y5.8603   0x0015b0b8        0x4 gui.o
 .bss.fingerFlag1.8637
                0x0015b0bc        0x4 gui.o
 .bss.fingerFlag2.8638
                0x0015b0c0        0x4 gui.o
 .bss.pReader.8593
                0x0015b0c4        0x4 gui.o
 .bss.ptGesture.8609
                0x0015b0c8        0x8 gui.o
 .bss.rcTouch.8613
                0x0015b0d0       0x10 gui.o
 .bss.G_ABORTstack
                0x0015b0e0      0x800 mAbassiCfgA9.o
                0x0015b0e0                G_ABORTstack
 .bss.G_FIQstack
                0x0015b8e0      0x800 mAbassiCfgA9.o
                0x0015b8e0                G_FIQstack
 .bss.G_IRQstack
                0x0015c0e0     0x8000 mAbassiCfgA9.o
                0x0015c0e0                G_IRQstack
 .bss.G_SUPERstack
                0x001640e0     0x8000 mAbassiCfgA9.o
                0x001640e0                G_SUPERstack
 .bss.G_UNDEFstack
                0x0016c0e0      0x800 mAbassiCfgA9.o
                0x0016c0e0                G_UNDEFstack
 .bss.Arg_V.8149
                0x0016c8e0       0x28 Shell.o
 .bss.CmdLine.8150
                0x0016c908       0x81 Shell.o
 *fill*         0x0016c989        0x7 
 .bss.SetV.8151
                0x0016c990        0x3 Shell.o
 *fill*         0x0016c993        0x5 
 .bss.ValAsc.8283
                0x0016c998       0x80 Shell.o
 .bss.g_CmdHist
                0x0016ca18     0x20c1 Shell.o
 *fill*         0x0016ead9        0x3 
 .bss.g_EchoOff
                0x0016eadc        0x4 Shell.o
 .bss.g_HistNew
                0x0016eae0        0x4 Shell.o
 .bss.g_HistOld
                0x0016eae4        0x4 Shell.o
 .bss.g_StrIP   0x0016eae8       0x20 Shell.o
 .bss.g_StrIPn  0x0016eb08       0x20 Shell.o
 .bss.g_StrP    0x0016eb28       0x20 Shell.o
 .bss.g_StrPn   0x0016eb48       0x20 Shell.o
 .bss.g_StrV    0x0016eb68       0x20 Shell.o
 .bss.g_StrVn   0x0016eb88       0x20 Shell.o
 .bss.ExpiryZap.7523
                0x0016eba8        0x4 ../../mAbassi/Platform/lib\lib_mAbassi_EVAL_GCC_AR5_CY5.a(mAbassi_EVAL_A9_GCC_2_NR.o)
 *fill*         0x0016ebac        0x4 
 .bss.G_CoreIdleDone
                0x0016ebb0        0x8 ../../mAbassi/Platform/lib\lib_mAbassi_EVAL_GCC_AR5_CY5.a(mAbassi_EVAL_A9_GCC_2_NR.o)
                0x0016ebb0                G_CoreIdleDone
 .bss.G_OSisrQrd
                0x0016ebb8        0x8 ../../mAbassi/Platform/lib\lib_mAbassi_EVAL_GCC_AR5_CY5.a(mAbassi_EVAL_A9_GCC_2_NR.o)
                0x0016ebb8                G_OSisrQrd
 .bss.G_OSisrQwrt
                0x0016ebc0        0x8 ../../mAbassi/Platform/lib\lib_mAbassi_EVAL_GCC_AR5_CY5.a(mAbassi_EVAL_A9_GCC_2_NR.o)
                0x0016ebc0                G_OSisrQwrt
 .bss.G_OSisrState
                0x0016ebc8       0x38 ../../mAbassi/Platform/lib\lib_mAbassi_EVAL_GCC_AR5_CY5.a(mAbassi_EVAL_A9_GCC_2_NR.o)
                0x0016ebc8                G_OSisrState
 .bss.G_OSisrTbl
                0x0016ec00     0x1000 ../../mAbassi/Platform/lib\lib_mAbassi_EVAL_GCC_AR5_CY5.a(mAbassi_EVAL_A9_GCC_2_NR.o)
                0x0016ec00                G_OSisrTbl
 .bss.G_OSmutex
                0x0016fc00        0x4 ../../mAbassi/Platform/lib\lib_mAbassi_EVAL_GCC_AR5_CY5.a(mAbassi_EVAL_A9_GCC_2_NR.o)
                0x0016fc00                G_OSmutex
 .bss.G_OSstate
                0x0016fc04        0x4 ../../mAbassi/Platform/lib\lib_mAbassi_EVAL_GCC_AR5_CY5.a(mAbassi_EVAL_A9_GCC_2_NR.o)
                0x0016fc04                G_OSstate
 .bss.G_OStaskNow
                0x0016fc08        0x8 ../../mAbassi/Platform/lib\lib_mAbassi_EVAL_GCC_AR5_CY5.a(mAbassi_EVAL_A9_GCC_2_NR.o)
                0x0016fc08                G_OStaskNow
 .bss.G_OStimCnt
                0x0016fc10        0x4 ../../mAbassi/Platform/lib\lib_mAbassi_EVAL_GCC_AR5_CY5.a(mAbassi_EVAL_A9_GCC_2_NR.o)
                0x0016fc10                G_OStimCnt
 *fill*         0x0016fc14        0x4 
 .bss.LoadBal.7508
                0x0016fc18        0x8 ../../mAbassi/Platform/lib\lib_mAbassi_EVAL_GCC_AR5_CY5.a(mAbassi_EVAL_A9_GCC_2_NR.o)
 .bss.g_CoreInInit
                0x0016fc20        0x4 ../../mAbassi/Platform/lib\lib_mAbassi_EVAL_GCC_AR5_CY5.a(mAbassi_EVAL_A9_GCC_2_NR.o)
 .bss.g_GrpList
                0x0016fc24        0x4 ../../mAbassi/Platform/lib\lib_mAbassi_EVAL_GCC_AR5_CY5.a(mAbassi_EVAL_A9_GCC_2_NR.o)
                0x0016fc24                g_GrpList
 .bss.g_KrnlReent
                0x0016fc28        0x8 ../../mAbassi/Platform/lib\lib_mAbassi_EVAL_GCC_AR5_CY5.a(mAbassi_EVAL_A9_GCC_2_NR.o)
                0x0016fc28                g_KrnlReent
 .bss.g_MblkList
                0x0016fc30        0x4 ../../mAbassi/Platform/lib\lib_mAbassi_EVAL_GCC_AR5_CY5.a(mAbassi_EVAL_A9_GCC_2_NR.o)
                0x0016fc30                g_MblkList
 .bss.g_MboxList
                0x0016fc34        0x4 ../../mAbassi/Platform/lib\lib_mAbassi_EVAL_GCC_AR5_CY5.a(mAbassi_EVAL_A9_GCC_2_NR.o)
                0x0016fc34                g_MboxList
 .bss.g_MutexList
                0x0016fc38        0x4 ../../mAbassi/Platform/lib\lib_mAbassi_EVAL_GCC_AR5_CY5.a(mAbassi_EVAL_A9_GCC_2_NR.o)
                0x0016fc38                g_MutexList
 *fill*         0x0016fc3c        0x4 
 .bss.g_OStimCore
                0x0016fc40        0x8 ../../mAbassi/Platform/lib\lib_mAbassi_EVAL_GCC_AR5_CY5.a(mAbassi_EVAL_A9_GCC_2_NR.o)
 .bss.g_OStimSpin
                0x0016fc48        0x4 ../../mAbassi/Platform/lib\lib_mAbassi_EVAL_GCC_AR5_CY5.a(mAbassi_EVAL_A9_GCC_2_NR.o)
 .bss.g_PostQueue
                0x0016fc4c    0x18000 ../../mAbassi/Platform/lib\lib_mAbassi_EVAL_GCC_AR5_CY5.a(mAbassi_EVAL_A9_GCC_2_NR.o)
 .bss.g_SemaList
                0x00187c4c        0x4 ../../mAbassi/Platform/lib\lib_mAbassi_EVAL_GCC_AR5_CY5.a(mAbassi_EVAL_A9_GCC_2_NR.o)
                0x00187c4c                g_SemaList
 .bss.g_StrvHoldCnt
                0x00187c50        0x4 ../../mAbassi/Platform/lib\lib_mAbassi_EVAL_GCC_AR5_CY5.a(mAbassi_EVAL_A9_GCC_2_NR.o)
                0x00187c50                g_StrvHoldCnt
 .bss.g_StrvList
                0x00187c54        0x4 ../../mAbassi/Platform/lib\lib_mAbassi_EVAL_GCC_AR5_CY5.a(mAbassi_EVAL_A9_GCC_2_NR.o)
                0x00187c54                g_StrvList
 .bss.g_StrvPreEmptCnt
                0x00187c58        0x4 ../../mAbassi/Platform/lib\lib_mAbassi_EVAL_GCC_AR5_CY5.a(mAbassi_EVAL_A9_GCC_2_NR.o)
                0x00187c58                g_StrvPreEmptCnt
 .bss.g_StrvRunCnt
                0x00187c5c        0x4 ../../mAbassi/Platform/lib\lib_mAbassi_EVAL_GCC_AR5_CY5.a(mAbassi_EVAL_A9_GCC_2_NR.o)
                0x00187c5c                g_StrvRunCnt
 .bss.g_StrvTick
                0x00187c60        0x4 ../../mAbassi/Platform/lib\lib_mAbassi_EVAL_GCC_AR5_CY5.a(mAbassi_EVAL_A9_GCC_2_NR.o)
                0x00187c60                g_StrvTick
 .bss.g_TaskList
                0x00187c64        0x4 ../../mAbassi/Platform/lib\lib_mAbassi_EVAL_GCC_AR5_CY5.a(mAbassi_EVAL_A9_GCC_2_NR.o)
                0x00187c64                g_TaskList
 .bss.g_TaskRdy
                0x00187c68       0x84 ../../mAbassi/Platform/lib\lib_mAbassi_EVAL_GCC_AR5_CY5.a(mAbassi_EVAL_A9_GCC_2_NR.o)
                0x00187c68                g_TaskRdy
 .bss.g_TimSrvChkBusy
                0x00187cec        0x4 ../../mAbassi/Platform/lib\lib_mAbassi_EVAL_GCC_AR5_CY5.a(mAbassi_EVAL_A9_GCC_2_NR.o)
                0x00187cec                g_TimSrvChkBusy
 .bss.g_TimSrvList
                0x00187cf0        0x4 ../../mAbassi/Platform/lib\lib_mAbassi_EVAL_GCC_AR5_CY5.a(mAbassi_EVAL_A9_GCC_2_NR.o)
                0x00187cf0                g_TimSrvList
 .bss.g_TimeOutChkBusy
                0x00187cf4        0x4 ../../mAbassi/Platform/lib\lib_mAbassi_EVAL_GCC_AR5_CY5.a(mAbassi_EVAL_A9_GCC_2_NR.o)
                0x00187cf4                g_TimeOutChkBusy
 .bss.g_TimeOutList
                0x00187cf8        0x4 ../../mAbassi/Platform/lib\lib_mAbassi_EVAL_GCC_AR5_CY5.a(mAbassi_EVAL_A9_GCC_2_NR.o)
                0x00187cf8                g_TimeOutList
 .bss.g_TimerList
                0x00187cfc        0x4 ../../mAbassi/Platform/lib\lib_mAbassi_EVAL_GCC_AR5_CY5.a(mAbassi_EVAL_A9_GCC_2_NR.o)
                0x00187cfc                g_TimerList
 .bss.g__OSmutex
                0x00187d00       0x20 ../../mAbassi/Platform/lib\lib_mAbassi_EVAL_GCC_AR5_CY5.a(mAbassi_EVAL_A9_GCC_2_NR.o)
 *fill*         0x00187d20       0xe0 
 .bss           0x00187e00      0x200 ../../mAbassi/Platform/lib\lib_mAbassi_EVAL_GCC_AR5_CY5.a(mAbassi_EVAL_GCC_AR5_CY5_NR.o)
 .bss           0x00188000        0x4 ../../mAbassi/Platform/lib\lib_mAbassi_EVAL_GCC_AR5_CY5.a(ARMv7_SMP_L1_L2_GCC_AR5_CY5.o)
 .bss           0x00188004        0x8 c:/intelfpga/18.1/embedded/host_tools/mentor/gnu/arm/baremetal/bin/../lib/gcc/arm-altera-eabi/6.2.0/../../../../arm-altera-eabi/lib\libc.a(lib_a-findfp.o)
 .bss           0x0018800c       0x34 c:/intelfpga/18.1/embedded/host_tools/mentor/gnu/arm/baremetal/bin/../lib/gcc/arm-altera-eabi/6.2.0/../../../../arm-altera-eabi/lib\libc.a(lib_a-mallocr.o)
                0x0018800c                __malloc_top_pad
                0x00188010                __malloc_current_mallinfo
                0x00188038                __malloc_max_sbrked_mem
                0x0018803c                __malloc_max_total_mem
 .bss           0x00188040        0x4 c:/intelfpga/18.1/embedded/host_tools/mentor/gnu/arm/baremetal/bin/../lib/gcc/arm-altera-eabi/6.2.0/../../../../arm-altera-eabi/lib\libc.a(lib_a-mlock.o)
 .bss           0x00188044        0x4 c:/intelfpga/18.1/embedded/host_tools/mentor/gnu/arm/baremetal/bin/../lib/gcc/arm-altera-eabi/6.2.0/../../../../arm-altera-eabi/lib\libc.a(lib_a-tzlock.o)
 .bss           0x00188048       0x1b c:/intelfpga/18.1/embedded/host_tools/mentor/gnu/arm/baremetal/bin/../lib/gcc/arm-altera-eabi/6.2.0/../../../../arm-altera-eabi/lib\libc.a(lib_a-tzset_r.o)
 *fill*         0x00188063        0x1 
 .bss           0x00188064        0x8 c:/intelfpga/18.1/embedded/host_tools/mentor/gnu/arm/baremetal/bin/../lib/gcc/arm-altera-eabi/6.2.0/../../../../arm-altera-eabi/lib\libc.a(lib_a-tzvars.o)
                0x00188064                _timezone
                0x00188068                _daylight
 .bss           0x0018806c        0x4 c:/intelfpga/18.1/embedded/host_tools/mentor/gnu/arm/baremetal/bin/../lib/gcc/arm-altera-eabi/6.2.0/../../../../arm-altera-eabi/lib\libc.a(lib_a-__call_atexit.o)
                0x0018806c                __atexit_lock
 .bss           0x00188070        0x4 c:/intelfpga/18.1/embedded/host_tools/mentor/gnu/arm/baremetal/bin/../lib/gcc/arm-altera-eabi/6.2.0/../../../../arm-altera-eabi/lib\libc.a(lib_a-environ.o)
 .bss           0x00188074        0x4 c:/intelfpga/18.1/embedded/host_tools/mentor/gnu/arm/baremetal/bin/../lib/gcc/arm-altera-eabi/6.2.0/../../../../arm-altera-eabi/lib\libc.a(lib_a-envlock.o)
 *(COMMON)
                0x00188078                . = ALIGN (0x8)
 *(.ram.b .bss.ram)
                0x00188078                . = ALIGN (0x8)
                0x00188078                _end = .
                0x00188078                __end = .

.memdrive       0x00188078 0x10000000
                0x00188078                . = ALIGN (0x8)
                0x00188078                G_MemDrvBase = .
                0x10188078                . = (. + _MDRV_SIZE)
 *fill*         0x00188078 0x10000000 
                0x10188078                G_MemDrvEnd = .
                0x40000000                __cs3_region_end_ram = (__cs3_region_start_ram + LENGTH (ram))
                0x3fefffc0                __cs3_region_size_ram = LENGTH (ram)
                0x00100040                __cs3_region_init_ram = LOADADDR (.text)
                0x0004b5b0                __cs3_region_init_size_ram = (_edata - ADDR (.text))
                0x0003ca88                __cs3_region_zero_size_ram = (_end - _edata)

.stab
 *(.stab)

.stabstr
 *(.stabstr)

.debug
 *(.debug)

.line
 *(.line)

.debug_srcinfo
 *(.debug_srcinfo)

.debug_sfnames
 *(.debug_sfnames)

.debug_aranges  0x00000000     0x11e8
 *(.debug_aranges)
 .debug_aranges
                0x00000000       0x28 Main_mAbassi.o
 .debug_aranges
                0x00000028      0x100 MyApp_MTL2.o
 .debug_aranges
                0x00000128       0x20 TIMERinit.o
 .debug_aranges
                0x00000148       0x48 alt_gpio.o
 .debug_aranges
                0x00000190       0x20 arm_acp.o
 .debug_aranges
                0x000001b0       0xd0 arm_pl330.o
 .debug_aranges
                0x00000280       0x68 dw_i2c.o
 .debug_aranges
                0x000002e8       0x48 dw_uart.o
 .debug_aranges
                0x00000330       0x58 MediaIF.o
 .debug_aranges
                0x00000388       0x28 SysCall_CY5.o
 .debug_aranges
                0x000003b0       0x90 dw_sdmmc.o
 .debug_aranges
                0x00000440      0x1d0 ff.o
 .debug_aranges
                0x00000610       0x30 ffunicode.o
 .debug_aranges
                0x00000640       0x48 Abassi_FatFS.o
 .debug_aranges
                0x00000688       0x68 Media_FatFS.o
 .debug_aranges
                0x000006f0      0x198 SysCall_FatFS.o
 .debug_aranges
                0x00000888       0x18 tahomabold_20.o
 .debug_aranges
                0x000008a0       0x18 tahomabold_32.o
 .debug_aranges
                0x000008b8       0x68 geometry.o
 .debug_aranges
                0x00000920       0x18 gesture.o
 .debug_aranges
                0x00000938       0x60 gui_vpg.o
 .debug_aranges
                0x00000998       0x78 gui.o
 .debug_aranges
                0x00000a10       0x78 vip_fr.o
 .debug_aranges
                0x00000a88      0x108 simple_graphics.o
 .debug_aranges
                0x00000b90       0x50 simple_text.o
 .debug_aranges
                0x00000be0       0x38 debug.o
 .debug_aranges
                0x00000c18       0x68 I2C_core.o
 .debug_aranges
                0x00000c80       0x98 I2C.o
 .debug_aranges
                0x00000d18       0x40 multi_touch2.o
 .debug_aranges
                0x00000d58       0x50 queue.o
 .debug_aranges
                0x00000da8      0x118 alt_generalpurpose_io.o
 .debug_aranges
                0x00000ec0      0x108 alt_globaltmr.o
 .debug_aranges
                0x00000fc8      0x130 alt_clock_manager.o
 .debug_aranges
                0x000010f8       0x18 mAbassiCfgA9.o
 .debug_aranges
                0x00001110       0xa0 Shell.o
 .debug_aranges
                0x000011b0       0x38 SubShell.o

.debug_pubnames
 *(.debug_pubnames)

.debug_info     0x00000000    0x5fd57
 *(.debug_info .gnu.linkonce.wi.*)
 .debug_info    0x00000000     0x1411 Main_mAbassi.o
 .debug_info    0x00001411     0x5024 MyApp_MTL2.o
 .debug_info    0x00006435      0xde5 TIMERinit.o
 .debug_info    0x0000721a     0x10d4 alt_gpio.o
 .debug_info    0x000082ee      0x11a arm_acp.o
 .debug_info    0x00008408     0x4737 arm_pl330.o
 .debug_info    0x0000cb3f     0x29f6 dw_i2c.o
 .debug_info    0x0000f535     0x25b0 dw_uart.o
 .debug_info    0x00011ae5     0x10b5 MediaIF.o
 .debug_info    0x00012b9a     0x1008 SysCall_CY5.o
 .debug_info    0x00013ba2     0x38ac dw_sdmmc.o
 .debug_info    0x0001744e     0xdebe ff.o
 .debug_info    0x0002530c      0xf65 ffunicode.o
 .debug_info    0x00026271     0x107d Abassi_FatFS.o
 .debug_info    0x000272ee     0x1273 Media_FatFS.o
 .debug_info    0x00028561     0x5e4e SysCall_FatFS.o
 .debug_info    0x0002e3af      0x8c6 tahomabold_20.o
 .debug_info    0x0002ec75      0x966 tahomabold_32.o
 .debug_info    0x0002f5db      0xc6b geometry.o
 .debug_info    0x00030246       0x9c gesture.o
 .debug_info    0x000302e2     0x227c gui_vpg.o
 .debug_info    0x0003255e     0x1f2f gui.o
 .debug_info    0x0003448d     0x102b vip_fr.o
 .debug_info    0x000354b8     0x6525 simple_graphics.o
 .debug_info    0x0003b9dd     0x159e simple_text.o
 .debug_info    0x0003cf7b      0xd11 debug.o
 .debug_info    0x0003dc8c     0x1dd4 I2C_core.o
 .debug_info    0x0003fa60     0x5348 I2C.o
 .debug_info    0x00044da8      0xe85 multi_touch2.o
 .debug_info    0x00045c2d      0xba7 queue.o
 .debug_info    0x000467d4     0x23de alt_generalpurpose_io.o
 .debug_info    0x00048bb2      0xf24 alt_globaltmr.o
 .debug_info    0x00049ad6     0x6ad3 alt_clock_manager.o
 .debug_info    0x000505a9      0xed0 mAbassiCfgA9.o
 .debug_info    0x00051479     0xd1ae Shell.o
 .debug_info    0x0005e627     0x1730 SubShell.o

.debug_abbrev   0x00000000     0x6e1a
 *(.debug_abbrev)
 .debug_abbrev  0x00000000      0x269 Main_mAbassi.o
 .debug_abbrev  0x00000269      0x55e MyApp_MTL2.o
 .debug_abbrev  0x000007c7      0x1f3 TIMERinit.o
 .debug_abbrev  0x000009ba      0x2be alt_gpio.o
 .debug_abbrev  0x00000c78       0xac arm_acp.o
 .debug_abbrev  0x00000d24      0x469 arm_pl330.o
 .debug_abbrev  0x0000118d      0x3c8 dw_i2c.o
 .debug_abbrev  0x00001555      0x387 dw_uart.o
 .debug_abbrev  0x000018dc      0x2db MediaIF.o
 .debug_abbrev  0x00001bb7      0x24d SysCall_CY5.o
 .debug_abbrev  0x00001e04      0x3e8 dw_sdmmc.o
 .debug_abbrev  0x000021ec      0x4eb ff.o
 .debug_abbrev  0x000026d7      0x211 ffunicode.o
 .debug_abbrev  0x000028e8      0x299 Abassi_FatFS.o
 .debug_abbrev  0x00002b81      0x2e7 Media_FatFS.o
 .debug_abbrev  0x00002e68      0x499 SysCall_FatFS.o
 .debug_abbrev  0x00003301       0x93 tahomabold_20.o
 .debug_abbrev  0x00003394       0x93 tahomabold_32.o
 .debug_abbrev  0x00003427      0x24f geometry.o
 .debug_abbrev  0x00003676       0x63 gesture.o
 .debug_abbrev  0x000036d9      0x34a gui_vpg.o
 .debug_abbrev  0x00003a23      0x419 gui.o
 .debug_abbrev  0x00003e3c      0x343 vip_fr.o
 .debug_abbrev  0x0000417f      0x4dc simple_graphics.o
 .debug_abbrev  0x0000465b      0x356 simple_text.o
 .debug_abbrev  0x000049b1      0x2b1 debug.o
 .debug_abbrev  0x00004c62      0x36a I2C_core.o
 .debug_abbrev  0x00004fcc      0x3fb I2C.o
 .debug_abbrev  0x000053c7      0x28f multi_touch2.o
 .debug_abbrev  0x00005656      0x2cb queue.o
 .debug_abbrev  0x00005921      0x391 alt_generalpurpose_io.o
 .debug_abbrev  0x00005cb2      0x3d1 alt_globaltmr.o
 .debug_abbrev  0x00006083      0x4bd alt_clock_manager.o
 .debug_abbrev  0x00006540      0x1ac mAbassiCfgA9.o
 .debug_abbrev  0x000066ec      0x3f1 Shell.o
 .debug_abbrev  0x00006add      0x33d SubShell.o

.debug_line     0x00000000    0x17d05
 *(.debug_line)
 .debug_line    0x00000000      0x3a2 Main_mAbassi.o
 .debug_line    0x000003a2      0xdc2 MyApp_MTL2.o
 .debug_line    0x00001164      0x25f TIMERinit.o
 .debug_line    0x000013c3      0x342 alt_gpio.o
 .debug_line    0x00001705      0x187 arm_acp.o
 .debug_line    0x0000188c     0x1069 arm_pl330.o
 .debug_line    0x000028f5      0xd7d dw_i2c.o
 .debug_line    0x00003672      0x775 dw_uart.o
 .debug_line    0x00003de7      0x43f MediaIF.o
 .debug_line    0x00004226      0x2b9 SysCall_CY5.o
 .debug_line    0x000044df      0xea6 dw_sdmmc.o
 .debug_line    0x00005385     0x45cd ff.o
 .debug_line    0x00009952      0x2fa ffunicode.o
 .debug_line    0x00009c4c      0x2f8 Abassi_FatFS.o
 .debug_line    0x00009f44      0x38d Media_FatFS.o
 .debug_line    0x0000a2d1     0x134c SysCall_FatFS.o
 .debug_line    0x0000b61d       0x41 tahomabold_20.o
 .debug_line    0x0000b65e       0x41 tahomabold_32.o
 .debug_line    0x0000b69f      0x2a2 geometry.o
 .debug_line    0x0000b941       0x42 gesture.o
 .debug_line    0x0000b983      0x7a8 gui_vpg.o
 .debug_line    0x0000c12b      0x54c gui.o
 .debug_line    0x0000c677      0x3b1 vip_fr.o
 .debug_line    0x0000ca28     0x130c simple_graphics.o
 .debug_line    0x0000dd34      0x509 simple_text.o
 .debug_line    0x0000e23d      0x29b debug.o
 .debug_line    0x0000e4d8      0x555 I2C_core.o
 .debug_line    0x0000ea2d     0x152c I2C.o
 .debug_line    0x0000ff59      0x3a4 multi_touch2.o
 .debug_line    0x000102fd      0x2e4 queue.o
 .debug_line    0x000105e1      0xc51 alt_generalpurpose_io.o
 .debug_line    0x00011232      0x590 alt_globaltmr.o
 .debug_line    0x000117c2     0x273d alt_clock_manager.o
 .debug_line    0x00013eff      0x24e mAbassiCfgA9.o
 .debug_line    0x0001414d     0x380d Shell.o
 .debug_line    0x0001795a      0x3ab SubShell.o

.debug_frame    0x00000000     0x77b0
 *(.debug_frame)
 .debug_frame   0x00000000       0x3c Main_mAbassi.o
 .debug_frame   0x0000003c      0x3e0 MyApp_MTL2.o
 .debug_frame   0x0000041c       0x28 TIMERinit.o
 .debug_frame   0x00000444       0xe4 alt_gpio.o
 .debug_frame   0x00000528       0x28 arm_acp.o
 .debug_frame   0x00000550      0x3e8 arm_pl330.o
 .debug_frame   0x00000938      0x1d0 dw_i2c.o
 .debug_frame   0x00000b08      0x120 dw_uart.o
 .debug_frame   0x00000c28       0xf0 MediaIF.o
 .debug_frame   0x00000d18       0x40 SysCall_CY5.o
 .debug_frame   0x00000d58      0x244 dw_sdmmc.o
 .debug_frame   0x00000f9c      0xac4 ff.o
 .debug_frame   0x00001a60       0x4c ffunicode.o
 .debug_frame   0x00001aac       0xa8 Abassi_FatFS.o
 .debug_frame   0x00001b54       0xf0 Media_FatFS.o
 .debug_frame   0x00001c44      0x6c4 SysCall_FatFS.o
 .debug_frame   0x00002308       0xe0 geometry.o
 .debug_frame   0x000023e8      0x188 gui_vpg.o
 .debug_frame   0x00002570      0x198 gui.o
 .debug_frame   0x00002708      0x110 vip_fr.o
 .debug_frame   0x00002818      0x4b0 simple_graphics.o
 .debug_frame   0x00002cc8      0x104 simple_text.o
 .debug_frame   0x00002dcc       0xac debug.o
 .debug_frame   0x00002e78      0x128 I2C_core.o
 .debug_frame   0x00002fa0      0x2d0 I2C.o
 .debug_frame   0x00003270       0xbc multi_touch2.o
 .debug_frame   0x0000332c       0xa8 queue.o
 .debug_frame   0x000033d4      0x310 alt_generalpurpose_io.o
 .debug_frame   0x000036e4      0x22c alt_globaltmr.o
 .debug_frame   0x00003910      0x36c alt_clock_manager.o
 .debug_frame   0x00003c7c      0x2d0 Shell.o
 .debug_frame   0x00003f4c       0xa4 SubShell.o
 .debug_frame   0x00003ff0      0x2d4 ../../mAbassi/Platform/lib\lib_mAbassi_EVAL_GCC_AR5_CY5.a(mAbassi_EVAL_GCC_AR5_CY5_NR.o)
 .debug_frame   0x000042c4       0xa8 ../../mAbassi/Platform/lib\lib_mAbassi_EVAL_GCC_AR5_CY5.a(ARMv7_SMP_L1_L2_GCC_AR5_CY5.o)
 .debug_frame   0x0000436c       0x40 c:/intelfpga/18.1/embedded/host_tools/mentor/gnu/arm/baremetal/bin/../lib/gcc/arm-altera-eabi/6.2.0/../../../../arm-altera-eabi/lib\libcs3.a(start_c.o)
 .debug_frame   0x000043ac       0x20 c:/intelfpga/18.1/embedded/host_tools/mentor/gnu/arm/baremetal/bin/../lib/gcc/arm-altera-eabi/6.2.0\libgcc.a(_udivsi3.o)
 .debug_frame   0x000043cc       0x20 c:/intelfpga/18.1/embedded/host_tools/mentor/gnu/arm/baremetal/bin/../lib/gcc/arm-altera-eabi/6.2.0\libgcc.a(_divsi3.o)
 .debug_frame   0x000043ec       0x44 c:/intelfpga/18.1/embedded/host_tools/mentor/gnu/arm/baremetal/bin/../lib/gcc/arm-altera-eabi/6.2.0\libgcc.a(_aeabi_ldivmod.o)
 .debug_frame   0x00004430       0x2c c:/intelfpga/18.1/embedded/host_tools/mentor/gnu/arm/baremetal/bin/../lib/gcc/arm-altera-eabi/6.2.0\libgcc.a(_aeabi_uldivmod.o)
 .debug_frame   0x0000445c       0x48 c:/intelfpga/18.1/embedded/host_tools/mentor/gnu/arm/baremetal/bin/../lib/gcc/arm-altera-eabi/6.2.0\libgcc.a(_udivmoddi4.o)
 .debug_frame   0x000044a4       0x34 c:/intelfpga/18.1/embedded/host_tools/mentor/gnu/arm/baremetal/bin/../lib/gcc/arm-altera-eabi/6.2.0/../../../../arm-altera-eabi/lib\libc.a(lib_a-calloc.o)
 .debug_frame   0x000044d8       0x34 c:/intelfpga/18.1/embedded/host_tools/mentor/gnu/arm/baremetal/bin/../lib/gcc/arm-altera-eabi/6.2.0/../../../../arm-altera-eabi/lib\libc.a(lib_a-callocr.o)
 .debug_frame   0x0000450c       0x2c c:/intelfpga/18.1/embedded/host_tools/mentor/gnu/arm/baremetal/bin/../lib/gcc/arm-altera-eabi/6.2.0/../../../../arm-altera-eabi/lib\libc.a(lib_a-errno.o)
 .debug_frame   0x00004538       0x28 c:/intelfpga/18.1/embedded/host_tools/mentor/gnu/arm/baremetal/bin/../lib/gcc/arm-altera-eabi/6.2.0/../../../../arm-altera-eabi/lib\libc.a(lib_a-exit.o)
 .debug_frame   0x00004560       0x70 c:/intelfpga/18.1/embedded/host_tools/mentor/gnu/arm/baremetal/bin/../lib/gcc/arm-altera-eabi/6.2.0/../../../../arm-altera-eabi/lib\libc.a(lib_a-fclose.o)
 .debug_frame   0x000045d0       0xac c:/intelfpga/18.1/embedded/host_tools/mentor/gnu/arm/baremetal/bin/../lib/gcc/arm-altera-eabi/6.2.0/../../../../arm-altera-eabi/lib\libc.a(lib_a-fflush.o)
 .debug_frame   0x0000467c      0x1f0 c:/intelfpga/18.1/embedded/host_tools/mentor/gnu/arm/baremetal/bin/../lib/gcc/arm-altera-eabi/6.2.0/../../../../arm-altera-eabi/lib\libc.a(lib_a-findfp.o)
 .debug_frame   0x0000486c       0x80 c:/intelfpga/18.1/embedded/host_tools/mentor/gnu/arm/baremetal/bin/../lib/gcc/arm-altera-eabi/6.2.0/../../../../arm-altera-eabi/lib\libc.a(lib_a-fopen.o)
 .debug_frame   0x000048ec       0x70 c:/intelfpga/18.1/embedded/host_tools/mentor/gnu/arm/baremetal/bin/../lib/gcc/arm-altera-eabi/6.2.0/../../../../arm-altera-eabi/lib\libc.a(lib_a-fprintf.o)
 .debug_frame   0x0000495c       0x9c c:/intelfpga/18.1/embedded/host_tools/mentor/gnu/arm/baremetal/bin/../lib/gcc/arm-altera-eabi/6.2.0/../../../../arm-altera-eabi/lib\libc.a(lib_a-fread.o)
 .debug_frame   0x000049f8       0x70 c:/intelfpga/18.1/embedded/host_tools/mentor/gnu/arm/baremetal/bin/../lib/gcc/arm-altera-eabi/6.2.0/../../../../arm-altera-eabi/lib\libc.a(lib_a-freer.o)
 .debug_frame   0x00004a68       0x70 c:/intelfpga/18.1/embedded/host_tools/mentor/gnu/arm/baremetal/bin/../lib/gcc/arm-altera-eabi/6.2.0/../../../../arm-altera-eabi/lib\libc.a(lib_a-fscanf.o)
 .debug_frame   0x00004ad8       0x50 c:/intelfpga/18.1/embedded/host_tools/mentor/gnu/arm/baremetal/bin/../lib/gcc/arm-altera-eabi/6.2.0/../../../../arm-altera-eabi/lib\libc.a(lib_a-fseek.o)
 .debug_frame   0x00004b28       0x84 c:/intelfpga/18.1/embedded/host_tools/mentor/gnu/arm/baremetal/bin/../lib/gcc/arm-altera-eabi/6.2.0/../../../../arm-altera-eabi/lib\libc.a(lib_a-fseeko.o)
 .debug_frame   0x00004bac       0x48 c:/intelfpga/18.1/embedded/host_tools/mentor/gnu/arm/baremetal/bin/../lib/gcc/arm-altera-eabi/6.2.0/../../../../arm-altera-eabi/lib\libc.a(lib_a-ftell.o)
 .debug_frame   0x00004bf4       0x5c c:/intelfpga/18.1/embedded/host_tools/mentor/gnu/arm/baremetal/bin/../lib/gcc/arm-altera-eabi/6.2.0/../../../../arm-altera-eabi/lib\libc.a(lib_a-ftello.o)
 .debug_frame   0x00004c50       0x80 c:/intelfpga/18.1/embedded/host_tools/mentor/gnu/arm/baremetal/bin/../lib/gcc/arm-altera-eabi/6.2.0/../../../../arm-altera-eabi/lib\libc.a(lib_a-fwalk.o)
 .debug_frame   0x00004cd0       0x80 c:/intelfpga/18.1/embedded/host_tools/mentor/gnu/arm/baremetal/bin/../lib/gcc/arm-altera-eabi/6.2.0/../../../../arm-altera-eabi/lib\libc.a(lib_a-fwrite.o)
 .debug_frame   0x00004d50       0x20 c:/intelfpga/18.1/embedded/host_tools/mentor/gnu/arm/baremetal/bin/../lib/gcc/arm-altera-eabi/6.2.0/../../../../arm-altera-eabi/lib\libc.a(lib_a-getreent.o)
 .debug_frame   0x00004d70       0x34 c:/intelfpga/18.1/embedded/host_tools/mentor/gnu/arm/baremetal/bin/../lib/gcc/arm-altera-eabi/6.2.0/../../../../arm-altera-eabi/lib\libc.a(lib_a-init.o)
 .debug_frame   0x00004da4       0x2c c:/intelfpga/18.1/embedded/host_tools/mentor/gnu/arm/baremetal/bin/../lib/gcc/arm-altera-eabi/6.2.0/../../../../arm-altera-eabi/lib\libc.a(lib_a-lcltime.o)
 .debug_frame   0x00004dd0       0x4c c:/intelfpga/18.1/embedded/host_tools/mentor/gnu/arm/baremetal/bin/../lib/gcc/arm-altera-eabi/6.2.0/../../../../arm-altera-eabi/lib\libc.a(lib_a-lcltime_r.o)
 .debug_frame   0x00004e1c       0xb8 c:/intelfpga/18.1/embedded/host_tools/mentor/gnu/arm/baremetal/bin/../lib/gcc/arm-altera-eabi/6.2.0/../../../../arm-altera-eabi/lib\libc.a(lib_a-locale.o)
 .debug_frame   0x00004ed4       0x8c c:/intelfpga/18.1/embedded/host_tools/mentor/gnu/arm/baremetal/bin/../lib/gcc/arm-altera-eabi/6.2.0/../../../../arm-altera-eabi/lib\libc.a(lib_a-makebuf.o)
 .debug_frame   0x00004f60       0x48 c:/intelfpga/18.1/embedded/host_tools/mentor/gnu/arm/baremetal/bin/../lib/gcc/arm-altera-eabi/6.2.0/../../../../arm-altera-eabi/lib\libc.a(lib_a-malloc.o)
 .debug_frame   0x00004fa8       0x7c c:/intelfpga/18.1/embedded/host_tools/mentor/gnu/arm/baremetal/bin/../lib/gcc/arm-altera-eabi/6.2.0/../../../../arm-altera-eabi/lib\libc.a(lib_a-mallocr.o)
 .debug_frame   0x00005024       0x58 c:/intelfpga/18.1/embedded/host_tools/mentor/gnu/arm/baremetal/bin/../lib/gcc/arm-altera-eabi/6.2.0/../../../../arm-altera-eabi/lib\libc.a(lib_a-mbtowc_r.o)
 .debug_frame   0x0000507c       0x44 c:/intelfpga/18.1/embedded/host_tools/mentor/gnu/arm/baremetal/bin/../lib/gcc/arm-altera-eabi/6.2.0/../../../../arm-altera-eabi/lib\libc.a(lib_a-memcpy-stub.o)
 .debug_frame   0x000050c0       0x40 c:/intelfpga/18.1/embedded/host_tools/mentor/gnu/arm/baremetal/bin/../lib/gcc/arm-altera-eabi/6.2.0/../../../../arm-altera-eabi/lib\libc.a(lib_a-memmove.o)
 .debug_frame   0x00005100       0x30 c:/intelfpga/18.1/embedded/host_tools/mentor/gnu/arm/baremetal/bin/../lib/gcc/arm-altera-eabi/6.2.0/../../../../arm-altera-eabi/lib\libc.a(lib_a-memset.o)
 .debug_frame   0x00005130       0x80 c:/intelfpga/18.1/embedded/host_tools/mentor/gnu/arm/baremetal/bin/../lib/gcc/arm-altera-eabi/6.2.0/../../../../arm-altera-eabi/lib\libc.a(lib_a-mktime.o)
 .debug_frame   0x000051b0       0x64 c:/intelfpga/18.1/embedded/host_tools/mentor/gnu/arm/baremetal/bin/../lib/gcc/arm-altera-eabi/6.2.0/../../../../arm-altera-eabi/lib\libc.a(lib_a-mlock.o)
 .debug_frame   0x00005214       0x74 c:/intelfpga/18.1/embedded/host_tools/mentor/gnu/arm/baremetal/bin/../lib/gcc/arm-altera-eabi/6.2.0/../../../../arm-altera-eabi/lib\libc.a(lib_a-printf.o)
 .debug_frame   0x00005288       0x48 c:/intelfpga/18.1/embedded/host_tools/mentor/gnu/arm/baremetal/bin/../lib/gcc/arm-altera-eabi/6.2.0/../../../../arm-altera-eabi/lib\libc.a(lib_a-putchar.o)
 .debug_frame   0x000052d0       0x64 c:/intelfpga/18.1/embedded/host_tools/mentor/gnu/arm/baremetal/bin/../lib/gcc/arm-altera-eabi/6.2.0/../../../../arm-altera-eabi/lib\libc.a(lib_a-puts.o)
 .debug_frame   0x00005334       0x48 c:/intelfpga/18.1/embedded/host_tools/mentor/gnu/arm/baremetal/bin/../lib/gcc/arm-altera-eabi/6.2.0/../../../../arm-altera-eabi/lib\libc.a(lib_a-rand.o)
 .debug_frame   0x0000537c       0x7c c:/intelfpga/18.1/embedded/host_tools/mentor/gnu/arm/baremetal/bin/../lib/gcc/arm-altera-eabi/6.2.0/../../../../arm-altera-eabi/lib\libc.a(lib_a-refill.o)
 .debug_frame   0x000053f8       0x48 c:/intelfpga/18.1/embedded/host_tools/mentor/gnu/arm/baremetal/bin/../lib/gcc/arm-altera-eabi/6.2.0/../../../../arm-altera-eabi/lib\libc.a(lib_a-rewind.o)
 .debug_frame   0x00005440       0x54 c:/intelfpga/18.1/embedded/host_tools/mentor/gnu/arm/baremetal/bin/../lib/gcc/arm-altera-eabi/6.2.0/../../../../arm-altera-eabi/lib\libc.a(lib_a-rget.o)
 .debug_frame   0x00005494       0x58 c:/intelfpga/18.1/embedded/host_tools/mentor/gnu/arm/baremetal/bin/../lib/gcc/arm-altera-eabi/6.2.0/../../../../arm-altera-eabi/lib\libc.a(lib_a-setvbuf.o)
 .debug_frame   0x000054ec       0x74 c:/intelfpga/18.1/embedded/host_tools/mentor/gnu/arm/baremetal/bin/../lib/gcc/arm-altera-eabi/6.2.0/../../../../arm-altera-eabi/lib\libc.a(lib_a-sprintf.o)
 .debug_frame   0x00005560       0x9c c:/intelfpga/18.1/embedded/host_tools/mentor/gnu/arm/baremetal/bin/../lib/gcc/arm-altera-eabi/6.2.0/../../../../arm-altera-eabi/lib\libc.a(lib_a-stdio.o)
 .debug_frame   0x000055fc       0x2c c:/intelfpga/18.1/embedded/host_tools/mentor/gnu/arm/baremetal/bin/../lib/gcc/arm-altera-eabi/6.2.0/../../../../arm-altera-eabi/lib\libc.a(lib_a-stpcpy.o)
 .debug_frame   0x00005628       0x44 c:/intelfpga/18.1/embedded/host_tools/mentor/gnu/arm/baremetal/bin/../lib/gcc/arm-altera-eabi/6.2.0/../../../../arm-altera-eabi/lib\libc.a(lib_a-strcasecmp.o)
 .debug_frame   0x0000566c       0x40 c:/intelfpga/18.1/embedded/host_tools/mentor/gnu/arm/baremetal/bin/../lib/gcc/arm-altera-eabi/6.2.0/../../../../arm-altera-eabi/lib\libc.a(lib_a-strcmp.o)
 .debug_frame   0x000056ac       0x20 c:/intelfpga/18.1/embedded/host_tools/mentor/gnu/arm/baremetal/bin/../lib/gcc/arm-altera-eabi/6.2.0/../../../../arm-altera-eabi/lib\libc.a(lib_a-strcpy.o)
 .debug_frame   0x000056cc       0x20 c:/intelfpga/18.1/embedded/host_tools/mentor/gnu/arm/baremetal/bin/../lib/gcc/arm-altera-eabi/6.2.0/../../../../arm-altera-eabi/lib\libc.a(lib_a-strlen-stub.o)
 .debug_frame   0x000056ec       0x44 c:/intelfpga/18.1/embedded/host_tools/mentor/gnu/arm/baremetal/bin/../lib/gcc/arm-altera-eabi/6.2.0/../../../../arm-altera-eabi/lib\libc.a(lib_a-strncasecmp.o)
 .debug_frame   0x00005730       0x34 c:/intelfpga/18.1/embedded/host_tools/mentor/gnu/arm/baremetal/bin/../lib/gcc/arm-altera-eabi/6.2.0/../../../../arm-altera-eabi/lib\libc.a(lib_a-strncat.o)
 .debug_frame   0x00005764       0x50 c:/intelfpga/18.1/embedded/host_tools/mentor/gnu/arm/baremetal/bin/../lib/gcc/arm-altera-eabi/6.2.0/../../../../arm-altera-eabi/lib\libc.a(lib_a-strncmp.o)
 .debug_frame   0x000057b4       0x40 c:/intelfpga/18.1/embedded/host_tools/mentor/gnu/arm/baremetal/bin/../lib/gcc/arm-altera-eabi/6.2.0/../../../../arm-altera-eabi/lib\libc.a(lib_a-strncpy.o)
 .debug_frame   0x000057f4       0x3c c:/intelfpga/18.1/embedded/host_tools/mentor/gnu/arm/baremetal/bin/../lib/gcc/arm-altera-eabi/6.2.0/../../../../arm-altera-eabi/lib\libc.a(lib_a-strrchr.o)
 .debug_frame   0x00005830      0x108 c:/intelfpga/18.1/embedded/host_tools/mentor/gnu/arm/baremetal/bin/../lib/gcc/arm-altera-eabi/6.2.0/../../../../arm-altera-eabi/lib\libc.a(lib_a-strstr.o)
 .debug_frame   0x00005938       0xd0 c:/intelfpga/18.1/embedded/host_tools/mentor/gnu/arm/baremetal/bin/../lib/gcc/arm-altera-eabi/6.2.0/../../../../arm-altera-eabi/lib\libc.a(lib_a-strtol.o)
 .debug_frame   0x00005a08       0xd0 c:/intelfpga/18.1/embedded/host_tools/mentor/gnu/arm/baremetal/bin/../lib/gcc/arm-altera-eabi/6.2.0/../../../../arm-altera-eabi/lib\libc.a(lib_a-strtoll.o)
 .debug_frame   0x00005ad8       0xd0 c:/intelfpga/18.1/embedded/host_tools/mentor/gnu/arm/baremetal/bin/../lib/gcc/arm-altera-eabi/6.2.0/../../../../arm-altera-eabi/lib\libc.a(lib_a-strtoul.o)
 .debug_frame   0x00005ba8       0xd0 c:/intelfpga/18.1/embedded/host_tools/mentor/gnu/arm/baremetal/bin/../lib/gcc/arm-altera-eabi/6.2.0/../../../../arm-altera-eabi/lib\libc.a(lib_a-strtoull.o)
 .debug_frame   0x00005c78       0x50 c:/intelfpga/18.1/embedded/host_tools/mentor/gnu/arm/baremetal/bin/../lib/gcc/arm-altera-eabi/6.2.0/../../../../arm-altera-eabi/lib\libc.a(lib_a-svfprintf.o)
 .debug_frame   0x00005cc8       0x2c c:/intelfpga/18.1/embedded/host_tools/mentor/gnu/arm/baremetal/bin/../lib/gcc/arm-altera-eabi/6.2.0/../../../../arm-altera-eabi/lib\libc.a(lib_a-sysclose.o)
 .debug_frame   0x00005cf4       0x34 c:/intelfpga/18.1/embedded/host_tools/mentor/gnu/arm/baremetal/bin/../lib/gcc/arm-altera-eabi/6.2.0/../../../../arm-altera-eabi/lib\libc.a(lib_a-sysstat.o)
 .debug_frame   0x00005d28       0x4c c:/intelfpga/18.1/embedded/host_tools/mentor/gnu/arm/baremetal/bin/../lib/gcc/arm-altera-eabi/6.2.0/../../../../arm-altera-eabi/lib\libc.a(lib_a-tzcalc_limits.o)
 .debug_frame   0x00005d74       0x64 c:/intelfpga/18.1/embedded/host_tools/mentor/gnu/arm/baremetal/bin/../lib/gcc/arm-altera-eabi/6.2.0/../../../../arm-altera-eabi/lib\libc.a(lib_a-tzlock.o)
 .debug_frame   0x00005dd8       0x48 c:/intelfpga/18.1/embedded/host_tools/mentor/gnu/arm/baremetal/bin/../lib/gcc/arm-altera-eabi/6.2.0/../../../../arm-altera-eabi/lib\libc.a(lib_a-tzset.o)
 .debug_frame   0x00005e20       0x7c c:/intelfpga/18.1/embedded/host_tools/mentor/gnu/arm/baremetal/bin/../lib/gcc/arm-altera-eabi/6.2.0/../../../../arm-altera-eabi/lib\libc.a(lib_a-tzset_r.o)
 .debug_frame   0x00005e9c       0xa0 c:/intelfpga/18.1/embedded/host_tools/mentor/gnu/arm/baremetal/bin/../lib/gcc/arm-altera-eabi/6.2.0/../../../../arm-altera-eabi/lib\libc.a(lib_a-ungetc.o)
 .debug_frame   0x00005f3c       0xcc c:/intelfpga/18.1/embedded/host_tools/mentor/gnu/arm/baremetal/bin/../lib/gcc/arm-altera-eabi/6.2.0/../../../../arm-altera-eabi/lib\libc.a(lib_a-vfprintf.o)
 .debug_frame   0x00006008       0xd0 c:/intelfpga/18.1/embedded/host_tools/mentor/gnu/arm/baremetal/bin/../lib/gcc/arm-altera-eabi/6.2.0/../../../../arm-altera-eabi/lib\libc.a(lib_a-vfscanf.o)
 .debug_frame   0x000060d8       0x6c c:/intelfpga/18.1/embedded/host_tools/mentor/gnu/arm/baremetal/bin/../lib/gcc/arm-altera-eabi/6.2.0/../../../../arm-altera-eabi/lib\libc.a(lib_a-vsnprintf.o)
 .debug_frame   0x00006144       0x60 c:/intelfpga/18.1/embedded/host_tools/mentor/gnu/arm/baremetal/bin/../lib/gcc/arm-altera-eabi/6.2.0/../../../../arm-altera-eabi/lib\libc.a(lib_a-wbuf.o)
 .debug_frame   0x000061a4       0x48 c:/intelfpga/18.1/embedded/host_tools/mentor/gnu/arm/baremetal/bin/../lib/gcc/arm-altera-eabi/6.2.0/../../../../arm-altera-eabi/lib\libc.a(lib_a-wctomb_r.o)
 .debug_frame   0x000061ec       0x40 c:/intelfpga/18.1/embedded/host_tools/mentor/gnu/arm/baremetal/bin/../lib/gcc/arm-altera-eabi/6.2.0/../../../../arm-altera-eabi/lib\libc.a(lib_a-wsetup.o)
 .debug_frame   0x0000622c       0x84 c:/intelfpga/18.1/embedded/host_tools/mentor/gnu/arm/baremetal/bin/../lib/gcc/arm-altera-eabi/6.2.0/../../../../arm-altera-eabi/lib\libc.a(lib_a-__call_atexit.o)
 .debug_frame   0x000062b0       0x2c c:/intelfpga/18.1/embedded/host_tools/mentor/gnu/arm/baremetal/bin/../lib/gcc/arm-altera-eabi/6.2.0/../../../../arm-altera-eabi/lib\libc.a(lib_a-atexit.o)
 .debug_frame   0x000062dc       0x3c c:/intelfpga/18.1/embedded/host_tools/mentor/gnu/arm/baremetal/bin/../lib/gcc/arm-altera-eabi/6.2.0/../../../../arm-altera-eabi/lib\libc.a(lib_a-div.o)
 .debug_frame   0x00006318       0xac c:/intelfpga/18.1/embedded/host_tools/mentor/gnu/arm/baremetal/bin/../lib/gcc/arm-altera-eabi/6.2.0/../../../../arm-altera-eabi/lib\libc.a(lib_a-dtoa.o)
 .debug_frame   0x000063c4       0x34 c:/intelfpga/18.1/embedded/host_tools/mentor/gnu/arm/baremetal/bin/../lib/gcc/arm-altera-eabi/6.2.0/../../../../arm-altera-eabi/lib\libc.a(lib_a-fini.o)
 .debug_frame   0x000063f8       0x34 c:/intelfpga/18.1/embedded/host_tools/mentor/gnu/arm/baremetal/bin/../lib/gcc/arm-altera-eabi/6.2.0/../../../../arm-altera-eabi/lib\libc.a(lib_a-flags.o)
 .debug_frame   0x0000642c       0x80 c:/intelfpga/18.1/embedded/host_tools/mentor/gnu/arm/baremetal/bin/../lib/gcc/arm-altera-eabi/6.2.0/../../../../arm-altera-eabi/lib\libc.a(lib_a-fvwrite.o)
 .debug_frame   0x000064ac       0x70 c:/intelfpga/18.1/embedded/host_tools/mentor/gnu/arm/baremetal/bin/../lib/gcc/arm-altera-eabi/6.2.0/../../../../arm-altera-eabi/lib\libc.a(lib_a-getenv_r.o)
 .debug_frame   0x0000651c       0x20 c:/intelfpga/18.1/embedded/host_tools/mentor/gnu/arm/baremetal/bin/../lib/gcc/arm-altera-eabi/6.2.0/../../../../arm-altera-eabi/lib\libc.a(lib_a-gettzinfo.o)
 .debug_frame   0x0000653c       0x48 c:/intelfpga/18.1/embedded/host_tools/mentor/gnu/arm/baremetal/bin/../lib/gcc/arm-altera-eabi/6.2.0/../../../../arm-altera-eabi/lib\libc.a(lib_a-gmtime_r.o)
 .debug_frame   0x00006584       0x2c c:/intelfpga/18.1/embedded/host_tools/mentor/gnu/arm/baremetal/bin/../lib/gcc/arm-altera-eabi/6.2.0/../../../../arm-altera-eabi/lib\libc.a(lib_a-iswspace.o)
 .debug_frame   0x000065b0       0x58 c:/intelfpga/18.1/embedded/host_tools/mentor/gnu/arm/baremetal/bin/../lib/gcc/arm-altera-eabi/6.2.0/../../../../arm-altera-eabi/lib\libc.a(lib_a-localeconv.o)
 .debug_frame   0x00006608       0x78 c:/intelfpga/18.1/embedded/host_tools/mentor/gnu/arm/baremetal/bin/../lib/gcc/arm-altera-eabi/6.2.0/../../../../arm-altera-eabi/lib\libc.a(lib_a-mbrtowc.o)
 .debug_frame   0x00006680       0x38 c:/intelfpga/18.1/embedded/host_tools/mentor/gnu/arm/baremetal/bin/../lib/gcc/arm-altera-eabi/6.2.0/../../../../arm-altera-eabi/lib\libc.a(lib_a-memchr-stub.o)
 .debug_frame   0x000066b8       0x3c c:/intelfpga/18.1/embedded/host_tools/mentor/gnu/arm/baremetal/bin/../lib/gcc/arm-altera-eabi/6.2.0/../../../../arm-altera-eabi/lib\libc.a(lib_a-memcmp.o)
 .debug_frame   0x000066f4      0x304 c:/intelfpga/18.1/embedded/host_tools/mentor/gnu/arm/baremetal/bin/../lib/gcc/arm-altera-eabi/6.2.0/../../../../arm-altera-eabi/lib\libc.a(lib_a-mprec.o)
 .debug_frame   0x000069f8       0x80 c:/intelfpga/18.1/embedded/host_tools/mentor/gnu/arm/baremetal/bin/../lib/gcc/arm-altera-eabi/6.2.0/../../../../arm-altera-eabi/lib\libc.a(lib_a-putc.o)
 .debug_frame   0x00006a78       0x60 c:/intelfpga/18.1/embedded/host_tools/mentor/gnu/arm/baremetal/bin/../lib/gcc/arm-altera-eabi/6.2.0/../../../../arm-altera-eabi/lib\libc.a(lib_a-reallocr.o)
 .debug_frame   0x00006ad8       0x34 c:/intelfpga/18.1/embedded/host_tools/mentor/gnu/arm/baremetal/bin/../lib/gcc/arm-altera-eabi/6.2.0/../../../../arm-altera-eabi/lib\libc.a(lib_a-sccl.o)
 .debug_frame   0x00006b0c       0x20 c:/intelfpga/18.1/embedded/host_tools/mentor/gnu/arm/baremetal/bin/../lib/gcc/arm-altera-eabi/6.2.0/../../../../arm-altera-eabi/lib\libc.a(lib_a-sf_nan.o)
 .debug_frame   0x00006b2c       0x78 c:/intelfpga/18.1/embedded/host_tools/mentor/gnu/arm/baremetal/bin/../lib/gcc/arm-altera-eabi/6.2.0/../../../../arm-altera-eabi/lib\libc.a(lib_a-siscanf.o)
 .debug_frame   0x00006ba4       0x54 c:/intelfpga/18.1/embedded/host_tools/mentor/gnu/arm/baremetal/bin/../lib/gcc/arm-altera-eabi/6.2.0/../../../../arm-altera-eabi/lib\libc.a(lib_a-strchr.o)
 .debug_frame   0x00006bf8      0x138 c:/intelfpga/18.1/embedded/host_tools/mentor/gnu/arm/baremetal/bin/../lib/gcc/arm-altera-eabi/6.2.0/../../../../arm-altera-eabi/lib\libc.a(lib_a-strtod.o)
 .debug_frame   0x00006d30       0x9c c:/intelfpga/18.1/embedded/host_tools/mentor/gnu/arm/baremetal/bin/../lib/gcc/arm-altera-eabi/6.2.0/../../../../arm-altera-eabi/lib\libc.a(lib_a-svfiprintf.o)
 .debug_frame   0x00006dcc      0x100 c:/intelfpga/18.1/embedded/host_tools/mentor/gnu/arm/baremetal/bin/../lib/gcc/arm-altera-eabi/6.2.0/../../../../arm-altera-eabi/lib\libc.a(lib_a-svfiscanf.o)
 .debug_frame   0x00006ecc      0x104 c:/intelfpga/18.1/embedded/host_tools/mentor/gnu/arm/baremetal/bin/../lib/gcc/arm-altera-eabi/6.2.0/../../../../arm-altera-eabi/lib\libc.a(lib_a-vfiprintf.o)
 .debug_frame   0x00006fd0       0x3c c:/intelfpga/18.1/embedded/host_tools/mentor/gnu/arm/baremetal/bin/../lib/gcc/arm-altera-eabi/6.2.0/../../../../arm-altera-eabi/lib\libc.a(lib_a-__atexit.o)
 .debug_frame   0x0000700c       0x64 c:/intelfpga/18.1/embedded/host_tools/mentor/gnu/arm/baremetal/bin/../lib/gcc/arm-altera-eabi/6.2.0/../../../../arm-altera-eabi/lib\libc.a(lib_a-envlock.o)
 .debug_frame   0x00007070       0xbc c:/intelfpga/18.1/embedded/host_tools/mentor/gnu/arm/baremetal/bin/../lib/gcc/arm-altera-eabi/6.2.0/../../../../arm-altera-eabi/lib\libc.a(lib_a-fputwc.o)
 .debug_frame   0x0000712c       0xa8 c:/intelfpga/18.1/embedded/host_tools/mentor/gnu/arm/baremetal/bin/../lib/gcc/arm-altera-eabi/6.2.0/../../../../arm-altera-eabi/lib\libc.a(lib_a-gdtoa-gethex.o)
 .debug_frame   0x000071d4       0x90 c:/intelfpga/18.1/embedded/host_tools/mentor/gnu/arm/baremetal/bin/../lib/gcc/arm-altera-eabi/6.2.0/../../../../arm-altera-eabi/lib\libc.a(lib_a-gdtoa-hexnan.o)
 .debug_frame   0x00007264       0x70 c:/intelfpga/18.1/embedded/host_tools/mentor/gnu/arm/baremetal/bin/../lib/gcc/arm-altera-eabi/6.2.0/../../../../arm-altera-eabi/lib\libc.a(lib_a-wcrtomb.o)
 .debug_frame   0x000072d4       0x4c c:/intelfpga/18.1/embedded/host_tools/mentor/gnu/arm/baremetal/bin/../lib/gcc/arm-altera-eabi/6.2.0/../../../../arm-altera-eabi/lib\libm.a(lib_a-w_sqrt.o)
 .debug_frame   0x00007320       0x4c c:/intelfpga/18.1/embedded/host_tools/mentor/gnu/arm/baremetal/bin/../lib/gcc/arm-altera-eabi/6.2.0/../../../../arm-altera-eabi/lib\libm.a(lib_a-e_sqrt.o)
 .debug_frame   0x0000736c       0x20 c:/intelfpga/18.1/embedded/host_tools/mentor/gnu/arm/baremetal/bin/../lib/gcc/arm-altera-eabi/6.2.0/../../../../arm-altera-eabi/lib\libm.a(lib_a-s_matherr.o)
 .debug_frame   0x0000738c       0xac c:/intelfpga/18.1/embedded/host_tools/mentor/gnu/arm/baremetal/bin/../lib/gcc/arm-altera-eabi/6.2.0\libgcc.a(_arm_addsubdf3.o)
 .debug_frame   0x00007438       0x50 c:/intelfpga/18.1/embedded/host_tools/mentor/gnu/arm/baremetal/bin/../lib/gcc/arm-altera-eabi/6.2.0\libgcc.a(_arm_muldivdf3.o)
 .debug_frame   0x00007488       0xc4 c:/intelfpga/18.1/embedded/host_tools/mentor/gnu/arm/baremetal/bin/../lib/gcc/arm-altera-eabi/6.2.0\libgcc.a(_arm_cmpdf2.o)
 .debug_frame   0x0000754c       0x20 c:/intelfpga/18.1/embedded/host_tools/mentor/gnu/arm/baremetal/bin/../lib/gcc/arm-altera-eabi/6.2.0\libgcc.a(_arm_unorddf2.o)
 .debug_frame   0x0000756c       0x24 c:/intelfpga/18.1/embedded/host_tools/mentor/gnu/arm/baremetal/bin/../lib/gcc/arm-altera-eabi/6.2.0\libgcc.a(_arm_fixdfsi.o)
 .debug_frame   0x00007590       0x24 c:/intelfpga/18.1/embedded/host_tools/mentor/gnu/arm/baremetal/bin/../lib/gcc/arm-altera-eabi/6.2.0\libgcc.a(_arm_fixunsdfsi.o)
 .debug_frame   0x000075b4       0x24 c:/intelfpga/18.1/embedded/host_tools/mentor/gnu/arm/baremetal/bin/../lib/gcc/arm-altera-eabi/6.2.0\libgcc.a(_arm_truncdfsf2.o)
 .debug_frame   0x000075d8       0xc8 c:/intelfpga/18.1/embedded/host_tools/mentor/gnu/arm/baremetal/bin/../lib/gcc/arm-altera-eabi/6.2.0\libgcc.a(_arm_cmpsf2.o)
 .debug_frame   0x000076a0      0x110 c:/intelfpga/18.1/embedded/host_tools/mentor/gnu/arm/baremetal/bin/../lib/gcc/arm-altera-eabi/6.2.0\libgcc.a(gthr-generic.o)

.debug_str      0x00000000     0x9781
 *(.debug_str)
 .debug_str     0x00000000      0x8e1 Main_mAbassi.o
                                0x9f0 (size before relaxing)
 .debug_str     0x000008e1     0x319c MyApp_MTL2.o
                               0x3c8b (size before relaxing)
 .debug_str     0x00003a7d       0x40 TIMERinit.o
                                0x8cb (size before relaxing)
 .debug_str     0x00003abd       0xe1 alt_gpio.o
                                0x980 (size before relaxing)
 .debug_str     0x00003b9e       0x41 arm_acp.o
                                0x1f1 (size before relaxing)
 .debug_str     0x00003bdf      0x472 arm_pl330.o
                                0xe1c (size before relaxing)
 .debug_str     0x00004051      0x283 dw_i2c.o
                                0xc65 (size before relaxing)
 .debug_str     0x000042d4      0x1b8 dw_uart.o
                                0xb00 (size before relaxing)
 .debug_str     0x0000448c      0x117 MediaIF.o
                                0x76e (size before relaxing)
 .debug_str     0x000045a3       0x8a SysCall_CY5.o
                                0x9f3 (size before relaxing)
 .debug_str     0x0000462d      0x1ea dw_sdmmc.o
                                0xbec (size before relaxing)
 .debug_str     0x00004817      0x8ed ff.o
                               0x121d (size before relaxing)
 .debug_str     0x00005104       0x3a ffunicode.o
                                0x8ee (size before relaxing)
 .debug_str     0x0000513e       0x48 Abassi_FatFS.o
                                0x95c (size before relaxing)
 .debug_str     0x00005186       0x93 Media_FatFS.o
                                0xa58 (size before relaxing)
 .debug_str     0x00005219      0x35b SysCall_FatFS.o
                               0x13d1 (size before relaxing)
 .debug_str     0x00005574      0x707 tahomabold_20.o
                                0x841 (size before relaxing)
 .debug_str     0x00005c7b      0x688 tahomabold_32.o
                                0x841 (size before relaxing)
 .debug_str     0x00006303       0xae geometry.o
                                0x746 (size before relaxing)
 .debug_str     0x000063b1       0x37 gesture.o
                                0x189 (size before relaxing)
 .debug_str     0x000063e8      0x15d gui_vpg.o
                                0x913 (size before relaxing)
 .debug_str     0x00006545      0x308 gui.o
                                0xc95 (size before relaxing)
 .debug_str     0x0000684d       0xf0 vip_fr.o
                                0x7ef (size before relaxing)
 .debug_str     0x0000693d      0x630 simple_graphics.o
                                0xe56 (size before relaxing)
 .debug_str     0x00006f6d      0x15f simple_text.o
                                0x96a (size before relaxing)
 .debug_str     0x000070cc       0x99 debug.o
                                0x6e2 (size before relaxing)
 .debug_str     0x00007165      0x139 I2C_core.o
                                0x7bf (size before relaxing)
 .debug_str     0x0000729e      0x118 I2C.o
                                0x7dd (size before relaxing)
 .debug_str     0x000073b6       0xb0 multi_touch2.o
                                0x7bb (size before relaxing)
 .debug_str     0x00007466       0x41 queue.o
                                0x6f8 (size before relaxing)
 .debug_str     0x000074a7      0x5c8 alt_generalpurpose_io.o
                               0x1421 (size before relaxing)
 .debug_str     0x00007a6f      0x329 alt_globaltmr.o
                                0x999 (size before relaxing)
 .debug_str     0x00007d98     0x155f alt_clock_manager.o
                               0x21b9 (size before relaxing)
 .debug_str     0x000092f7       0xfa mAbassiCfgA9.o
                                0x97b (size before relaxing)
 .debug_str     0x000093f1      0x32a Shell.o
                                0xde3 (size before relaxing)
 .debug_str     0x0000971b       0x66 SubShell.o
                                0x9b4 (size before relaxing)

.debug_loc      0x00000000    0x5366f
 *(.debug_loc)
 .debug_loc     0x00000000       0x8c Main_mAbassi.o
 .debug_loc     0x0000008c     0x174a MyApp_MTL2.o
 .debug_loc     0x000017d6       0x1e TIMERinit.o
 .debug_loc     0x000017f4      0x3d7 alt_gpio.o
 .debug_loc     0x00001bcb      0x207 arm_acp.o
 .debug_loc     0x00001dd2     0x4fc8 arm_pl330.o
 .debug_loc     0x00006d9a     0x362e dw_i2c.o
 .debug_loc     0x0000a3c8     0x1d1a dw_uart.o
 .debug_loc     0x0000c0e2      0x9dd MediaIF.o
 .debug_loc     0x0000cabf       0x3f SysCall_CY5.o
 .debug_loc     0x0000cafe     0x2166 dw_sdmmc.o
 .debug_loc     0x0000ec64    0x17b0b ff.o
 .debug_loc     0x0002676f      0x42e ffunicode.o
 .debug_loc     0x00026b9d      0x171 Abassi_FatFS.o
 .debug_loc     0x00026d0e      0x34c Media_FatFS.o
 .debug_loc     0x0002705a     0x545a SysCall_FatFS.o
 .debug_loc     0x0002c4b4      0x22f geometry.o
 .debug_loc     0x0002c6e3     0x161d gui_vpg.o
 .debug_loc     0x0002dd00      0x6b1 gui.o
 .debug_loc     0x0002e3b1      0x37b vip_fr.o
 .debug_loc     0x0002e72c     0x7b13 simple_graphics.o
 .debug_loc     0x0003623f     0x14bd simple_text.o
 .debug_loc     0x000376fc      0x1c6 debug.o
 .debug_loc     0x000378c2      0xe57 I2C_core.o
 .debug_loc     0x00038719     0x2920 I2C.o
 .debug_loc     0x0003b039      0x2fa multi_touch2.o
 .debug_loc     0x0003b333      0x16a queue.o
 .debug_loc     0x0003b49d     0x285e alt_generalpurpose_io.o
 .debug_loc     0x0003dcfb      0x4c4 alt_globaltmr.o
 .debug_loc     0x0003e1bf     0xa1b3 alt_clock_manager.o
 .debug_loc     0x00048372     0xac5c Shell.o
 .debug_loc     0x00052fce      0x6a1 SubShell.o

.debug_macinfo
 *(.debug_macinfo)

.debug_ranges   0x00000000     0xbc08
 *(.debug_ranges)
 .debug_ranges  0x00000000       0x18 Main_mAbassi.o
 .debug_ranges  0x00000018      0x458 MyApp_MTL2.o
 .debug_ranges  0x00000470       0x10 TIMERinit.o
 .debug_ranges  0x00000480       0x38 alt_gpio.o
 .debug_ranges  0x000004b8       0x10 arm_acp.o
 .debug_ranges  0x000004c8      0x3d0 arm_pl330.o
 .debug_ranges  0x00000898      0x1d8 dw_i2c.o
 .debug_ranges  0x00000a70      0x198 dw_uart.o
 .debug_ranges  0x00000c08       0xb8 MediaIF.o
 .debug_ranges  0x00000cc0       0x18 SysCall_CY5.o
 .debug_ranges  0x00000cd8      0x328 dw_sdmmc.o
 .debug_ranges  0x00001000     0x3c10 ff.o
 .debug_ranges  0x00004c10       0x20 ffunicode.o
 .debug_ranges  0x00004c30       0x38 Abassi_FatFS.o
 .debug_ranges  0x00004c68       0x58 Media_FatFS.o
 .debug_ranges  0x00004cc0      0x768 SysCall_FatFS.o
 .debug_ranges  0x00005428       0x58 geometry.o
 .debug_ranges  0x00005480      0x338 gui_vpg.o
 .debug_ranges  0x000057b8       0x68 gui.o
 .debug_ranges  0x00005820      0x160 vip_fr.o
 .debug_ranges  0x00005980     0x10e0 simple_graphics.o
 .debug_ranges  0x00006a60      0x130 simple_text.o
 .debug_ranges  0x00006b90       0x28 debug.o
 .debug_ranges  0x00006bb8      0x2e8 I2C_core.o
 .debug_ranges  0x00006ea0      0xad0 I2C.o
 .debug_ranges  0x00007970       0x30 multi_touch2.o
 .debug_ranges  0x000079a0       0x78 queue.o
 .debug_ranges  0x00007a18      0xc28 alt_generalpurpose_io.o
 .debug_ranges  0x00008640      0x1b0 alt_globaltmr.o
 .debug_ranges  0x000087f0     0x1688 alt_clock_manager.o
 .debug_ranges  0x00009e78     0x1d20 Shell.o
 .debug_ranges  0x0000bb98       0x70 SubShell.o

.comment        0x00000000       0x30
 .comment       0x00000000       0x30 Main_mAbassi.o
                                 0x31 (size before relaxing)
 .comment       0x00000030       0x31 MyApp_MTL2.o
 .comment       0x00000030       0x31 TIMERinit.o
 .comment       0x00000030       0x31 alt_gpio.o
 .comment       0x00000030       0x31 arm_acp.o
 .comment       0x00000030       0x31 arm_pl330.o
 .comment       0x00000030       0x31 dw_i2c.o
 .comment       0x00000030       0x31 dw_uart.o
 .comment       0x00000030       0x31 MediaIF.o
 .comment       0x00000030       0x31 SysCall_CY5.o
 .comment       0x00000030       0x31 dw_sdmmc.o
 .comment       0x00000030       0x31 ff.o
 .comment       0x00000030       0x31 ffunicode.o
 .comment       0x00000030       0x31 Abassi_FatFS.o
 .comment       0x00000030       0x31 Media_FatFS.o
 .comment       0x00000030       0x31 SysCall_FatFS.o
 .comment       0x00000030       0x31 tahomabold_20.o
 .comment       0x00000030       0x31 tahomabold_32.o
 .comment       0x00000030       0x31 geometry.o
 .comment       0x00000030       0x31 gesture.o
 .comment       0x00000030       0x31 gui_vpg.o
 .comment       0x00000030       0x31 gui.o
 .comment       0x00000030       0x31 vip_fr.o
 .comment       0x00000030       0x31 simple_graphics.o
 .comment       0x00000030       0x31 simple_text.o
 .comment       0x00000030       0x31 debug.o
 .comment       0x00000030       0x31 I2C_core.o
 .comment       0x00000030       0x31 I2C.o
 .comment       0x00000030       0x31 multi_touch2.o
 .comment       0x00000030       0x31 queue.o
 .comment       0x00000030       0x31 alt_generalpurpose_io.o
 .comment       0x00000030       0x31 alt_globaltmr.o
 .comment       0x00000030       0x31 alt_clock_manager.o
 .comment       0x00000030       0x31 mAbassiCfgA9.o
 .comment       0x00000030       0x31 Shell.o
 .comment       0x00000030       0x31 SubShell.o
 .comment       0x00000030       0x31 ../../mAbassi/Platform/lib\lib_mAbassi_EVAL_GCC_AR5_CY5.a(mAbassi_EVAL_A9_GCC_2_NR.o)

.uncached       0x00000000     0x8000
 .uncached      0x00000000     0x8000 ../../mAbassi/Platform/lib\lib_mAbassi_EVAL_GCC_AR5_CY5.a(ARMv7_SMP_L1_L2_GCC_AR5_CY5.o)
                0x00000000                L1PageTbl

.debug_weaknames
 *(.debug_weaknames)

.debug_funcnames
 *(.debug_funcnames)

.debug_typenames
 *(.debug_typenames)

.debug_varnames
 *(.debug_varnames)

.note.gnu.arm.ident
 *(.note.gnu.arm.ident)

.ARM.attributes
                0x00000000       0x37
 *(.ARM.attributes)
 .ARM.attributes
                0x00000000       0x16 c:/intelfpga/18.1/embedded/host_tools/mentor/gnu/arm/baremetal/bin/../lib/gcc/arm-altera-eabi/6.2.0/crti.o
 .ARM.attributes
                0x00000016       0x30 c:/intelfpga/18.1/embedded/host_tools/mentor/gnu/arm/baremetal/bin/../lib/gcc/arm-altera-eabi/6.2.0/crtbegin.o
 .ARM.attributes
                0x00000046       0x3b Main_mAbassi.o
 .ARM.attributes
                0x00000081       0x3b MyApp_MTL2.o
 .ARM.attributes
                0x000000bc       0x3b TIMERinit.o
 .ARM.attributes
                0x000000f7       0x3b alt_gpio.o
 .ARM.attributes
                0x00000132       0x3b arm_acp.o
 .ARM.attributes
                0x0000016d       0x3b arm_pl330.o
 .ARM.attributes
                0x000001a8       0x3b dw_i2c.o
 .ARM.attributes
                0x000001e3       0x3b dw_uart.o
 .ARM.attributes
                0x0000021e       0x3b MediaIF.o
 .ARM.attributes
                0x00000259       0x3b SysCall_CY5.o
 .ARM.attributes
                0x00000294       0x3b dw_sdmmc.o
 .ARM.attributes
                0x000002cf       0x3b ff.o
 .ARM.attributes
                0x0000030a       0x3b ffunicode.o
 .ARM.attributes
                0x00000345       0x3b Abassi_FatFS.o
 .ARM.attributes
                0x00000380       0x3b Media_FatFS.o
 .ARM.attributes
                0x000003bb       0x3b SysCall_FatFS.o
 .ARM.attributes
                0x000003f6       0x3b tahomabold_20.o
 .ARM.attributes
                0x00000431       0x3b tahomabold_32.o
 .ARM.attributes
                0x0000046c       0x3b geometry.o
 .ARM.attributes
                0x000004a7       0x3b gesture.o
 .ARM.attributes
                0x000004e2       0x3b gui_vpg.o
 .ARM.attributes
                0x0000051d       0x3b gui.o
 .ARM.attributes
                0x00000558       0x3b vip_fr.o
 .ARM.attributes
                0x00000593       0x3b simple_graphics.o
 .ARM.attributes
                0x000005ce       0x3b simple_text.o
 .ARM.attributes
                0x00000609       0x3b debug.o
 .ARM.attributes
                0x00000644       0x3b I2C_core.o
 .ARM.attributes
                0x0000067f       0x3b I2C.o
 .ARM.attributes
                0x000006ba       0x3b multi_touch2.o
 .ARM.attributes
                0x000006f5       0x3b queue.o
 .ARM.attributes
                0x00000730       0x3b alt_generalpurpose_io.o
 .ARM.attributes
                0x0000076b       0x3b alt_globaltmr.o
 .ARM.attributes
                0x000007a6       0x3b alt_clock_manager.o
 .ARM.attributes
                0x000007e1       0x3b mAbassiCfgA9.o
 .ARM.attributes
                0x0000081c       0x3b Shell.o
 .ARM.attributes
                0x00000857       0x3b SubShell.o
 .ARM.attributes
                0x00000892       0x3b ../../mAbassi/Platform/lib\lib_mAbassi_EVAL_GCC_AR5_CY5.a(mAbassi_EVAL_A9_GCC_2_NR.o)
 .ARM.attributes
                0x000008cd       0x2b ../../mAbassi/Platform/lib\lib_mAbassi_EVAL_GCC_AR5_CY5.a(mAbassi_EVAL_GCC_AR5_CY5_NR.o)
 .ARM.attributes
                0x000008f8       0x2b ../../mAbassi/Platform/lib\lib_mAbassi_EVAL_GCC_AR5_CY5.a(ARMv7_SMP_L1_L2_GCC_AR5_CY5.o)
 .ARM.attributes
                0x00000923       0x30 c:/intelfpga/18.1/embedded/host_tools/mentor/gnu/arm/baremetal/bin/../lib/gcc/arm-altera-eabi/6.2.0/../../../../arm-altera-eabi/lib\libcs3.a(start_c.o)
 .ARM.attributes
                0x00000953       0x29 c:/intelfpga/18.1/embedded/host_tools/mentor/gnu/arm/baremetal/bin/../lib/gcc/arm-altera-eabi/6.2.0/../../../../arm-altera-eabi/lib\libcs3.a(cycloneV-dk-reset-ram.o)
 .ARM.attributes
                0x0000097c       0x14 c:/intelfpga/18.1/embedded/host_tools/mentor/gnu/arm/baremetal/bin/../lib/gcc/arm-altera-eabi/6.2.0/../../../../arm-altera-eabi/lib\libcs3unhosted.a(unhosted-start.o)
 .ARM.attributes
                0x00000990       0x1a c:/intelfpga/18.1/embedded/host_tools/mentor/gnu/arm/baremetal/bin/../lib/gcc/arm-altera-eabi/6.2.0/../../../../arm-altera-eabi/lib\libcs3arm.a(arm_isr_interrupt.o)
 .ARM.attributes
                0x000009aa       0x18 c:/intelfpga/18.1/embedded/host_tools/mentor/gnu/arm/baremetal/bin/../lib/gcc/arm-altera-eabi/6.2.0\libgcc.a(_udivsi3.o)
 .ARM.attributes
                0x000009c2       0x18 c:/intelfpga/18.1/embedded/host_tools/mentor/gnu/arm/baremetal/bin/../lib/gcc/arm-altera-eabi/6.2.0\libgcc.a(_divsi3.o)
 .ARM.attributes
                0x000009da       0x18 c:/intelfpga/18.1/embedded/host_tools/mentor/gnu/arm/baremetal/bin/../lib/gcc/arm-altera-eabi/6.2.0\libgcc.a(_dvmd_tls.o)
 .ARM.attributes
                0x000009f2       0x18 c:/intelfpga/18.1/embedded/host_tools/mentor/gnu/arm/baremetal/bin/../lib/gcc/arm-altera-eabi/6.2.0\libgcc.a(_aeabi_ldivmod.o)
 .ARM.attributes
                0x00000a0a       0x18 c:/intelfpga/18.1/embedded/host_tools/mentor/gnu/arm/baremetal/bin/../lib/gcc/arm-altera-eabi/6.2.0\libgcc.a(_aeabi_uldivmod.o)
 .ARM.attributes
                0x00000a22       0x30 c:/intelfpga/18.1/embedded/host_tools/mentor/gnu/arm/baremetal/bin/../lib/gcc/arm-altera-eabi/6.2.0\libgcc.a(_udivmoddi4.o)
 .ARM.attributes
                0x00000a52       0x18 c:/intelfpga/18.1/embedded/host_tools/mentor/gnu/arm/baremetal/bin/../lib/gcc/arm-altera-eabi/6.2.0\libgcc.a(_clzdi2.o)
 .ARM.attributes
                0x00000a6a       0x18 c:/intelfpga/18.1/embedded/host_tools/mentor/gnu/arm/baremetal/bin/../lib/gcc/arm-altera-eabi/6.2.0\libgcc.a(_clzsi2.o)
 .ARM.attributes
                0x00000a82       0x30 c:/intelfpga/18.1/embedded/host_tools/mentor/gnu/arm/baremetal/bin/../lib/gcc/arm-altera-eabi/6.2.0/../../../../arm-altera-eabi/lib\libc.a(lib_a-calloc.o)
 .ARM.attributes
                0x00000ab2       0x30 c:/intelfpga/18.1/embedded/host_tools/mentor/gnu/arm/baremetal/bin/../lib/gcc/arm-altera-eabi/6.2.0/../../../../arm-altera-eabi/lib\libc.a(lib_a-callocr.o)
 .ARM.attributes
                0x00000ae2       0x30 c:/intelfpga/18.1/embedded/host_tools/mentor/gnu/arm/baremetal/bin/../lib/gcc/arm-altera-eabi/6.2.0/../../../../arm-altera-eabi/lib\libc.a(lib_a-errno.o)
 .ARM.attributes
                0x00000b12       0x30 c:/intelfpga/18.1/embedded/host_tools/mentor/gnu/arm/baremetal/bin/../lib/gcc/arm-altera-eabi/6.2.0/../../../../arm-altera-eabi/lib\libc.a(lib_a-exit.o)
 .ARM.attributes
                0x00000b42       0x30 c:/intelfpga/18.1/embedded/host_tools/mentor/gnu/arm/baremetal/bin/../lib/gcc/arm-altera-eabi/6.2.0/../../../../arm-altera-eabi/lib\libc.a(lib_a-fclose.o)
 .ARM.attributes
                0x00000b72       0x30 c:/intelfpga/18.1/embedded/host_tools/mentor/gnu/arm/baremetal/bin/../lib/gcc/arm-altera-eabi/6.2.0/../../../../arm-altera-eabi/lib\libc.a(lib_a-fflush.o)
 .ARM.attributes
                0x00000ba2       0x30 c:/intelfpga/18.1/embedded/host_tools/mentor/gnu/arm/baremetal/bin/../lib/gcc/arm-altera-eabi/6.2.0/../../../../arm-altera-eabi/lib\libc.a(lib_a-findfp.o)
 .ARM.attributes
                0x00000bd2       0x30 c:/intelfpga/18.1/embedded/host_tools/mentor/gnu/arm/baremetal/bin/../lib/gcc/arm-altera-eabi/6.2.0/../../../../arm-altera-eabi/lib\libc.a(lib_a-fopen.o)
 .ARM.attributes
                0x00000c02       0x30 c:/intelfpga/18.1/embedded/host_tools/mentor/gnu/arm/baremetal/bin/../lib/gcc/arm-altera-eabi/6.2.0/../../../../arm-altera-eabi/lib\libc.a(lib_a-fprintf.o)
 .ARM.attributes
                0x00000c32       0x30 c:/intelfpga/18.1/embedded/host_tools/mentor/gnu/arm/baremetal/bin/../lib/gcc/arm-altera-eabi/6.2.0/../../../../arm-altera-eabi/lib\libc.a(lib_a-fread.o)
 .ARM.attributes
                0x00000c62       0x30 c:/intelfpga/18.1/embedded/host_tools/mentor/gnu/arm/baremetal/bin/../lib/gcc/arm-altera-eabi/6.2.0/../../../../arm-altera-eabi/lib\libc.a(lib_a-freer.o)
 .ARM.attributes
                0x00000c92       0x30 c:/intelfpga/18.1/embedded/host_tools/mentor/gnu/arm/baremetal/bin/../lib/gcc/arm-altera-eabi/6.2.0/../../../../arm-altera-eabi/lib\libc.a(lib_a-fscanf.o)
 .ARM.attributes
                0x00000cc2       0x30 c:/intelfpga/18.1/embedded/host_tools/mentor/gnu/arm/baremetal/bin/../lib/gcc/arm-altera-eabi/6.2.0/../../../../arm-altera-eabi/lib\libc.a(lib_a-fseek.o)
 .ARM.attributes
                0x00000cf2       0x30 c:/intelfpga/18.1/embedded/host_tools/mentor/gnu/arm/baremetal/bin/../lib/gcc/arm-altera-eabi/6.2.0/../../../../arm-altera-eabi/lib\libc.a(lib_a-fseeko.o)
 .ARM.attributes
                0x00000d22       0x30 c:/intelfpga/18.1/embedded/host_tools/mentor/gnu/arm/baremetal/bin/../lib/gcc/arm-altera-eabi/6.2.0/../../../../arm-altera-eabi/lib\libc.a(lib_a-ftell.o)
 .ARM.attributes
                0x00000d52       0x30 c:/intelfpga/18.1/embedded/host_tools/mentor/gnu/arm/baremetal/bin/../lib/gcc/arm-altera-eabi/6.2.0/../../../../arm-altera-eabi/lib\libc.a(lib_a-ftello.o)
 .ARM.attributes
                0x00000d82       0x30 c:/intelfpga/18.1/embedded/host_tools/mentor/gnu/arm/baremetal/bin/../lib/gcc/arm-altera-eabi/6.2.0/../../../../arm-altera-eabi/lib\libc.a(lib_a-fwalk.o)
 .ARM.attributes
                0x00000db2       0x30 c:/intelfpga/18.1/embedded/host_tools/mentor/gnu/arm/baremetal/bin/../lib/gcc/arm-altera-eabi/6.2.0/../../../../arm-altera-eabi/lib\libc.a(lib_a-fwrite.o)
 .ARM.attributes
                0x00000de2       0x30 c:/intelfpga/18.1/embedded/host_tools/mentor/gnu/arm/baremetal/bin/../lib/gcc/arm-altera-eabi/6.2.0/../../../../arm-altera-eabi/lib\libc.a(lib_a-getreent.o)
 .ARM.attributes
                0x00000e12       0x30 c:/intelfpga/18.1/embedded/host_tools/mentor/gnu/arm/baremetal/bin/../lib/gcc/arm-altera-eabi/6.2.0/../../../../arm-altera-eabi/lib\libc.a(lib_a-impure.o)
 .ARM.attributes
                0x00000e42       0x30 c:/intelfpga/18.1/embedded/host_tools/mentor/gnu/arm/baremetal/bin/../lib/gcc/arm-altera-eabi/6.2.0/../../../../arm-altera-eabi/lib\libc.a(lib_a-init.o)
 .ARM.attributes
                0x00000e72       0x30 c:/intelfpga/18.1/embedded/host_tools/mentor/gnu/arm/baremetal/bin/../lib/gcc/arm-altera-eabi/6.2.0/../../../../arm-altera-eabi/lib\libc.a(lib_a-lcltime.o)
 .ARM.attributes
                0x00000ea2       0x30 c:/intelfpga/18.1/embedded/host_tools/mentor/gnu/arm/baremetal/bin/../lib/gcc/arm-altera-eabi/6.2.0/../../../../arm-altera-eabi/lib\libc.a(lib_a-lcltime_r.o)
 .ARM.attributes
                0x00000ed2       0x30 c:/intelfpga/18.1/embedded/host_tools/mentor/gnu/arm/baremetal/bin/../lib/gcc/arm-altera-eabi/6.2.0/../../../../arm-altera-eabi/lib\libc.a(lib_a-locale.o)
 .ARM.attributes
                0x00000f02       0x30 c:/intelfpga/18.1/embedded/host_tools/mentor/gnu/arm/baremetal/bin/../lib/gcc/arm-altera-eabi/6.2.0/../../../../arm-altera-eabi/lib\libc.a(lib_a-makebuf.o)
 .ARM.attributes
                0x00000f32       0x30 c:/intelfpga/18.1/embedded/host_tools/mentor/gnu/arm/baremetal/bin/../lib/gcc/arm-altera-eabi/6.2.0/../../../../arm-altera-eabi/lib\libc.a(lib_a-malloc.o)
 .ARM.attributes
                0x00000f62       0x30 c:/intelfpga/18.1/embedded/host_tools/mentor/gnu/arm/baremetal/bin/../lib/gcc/arm-altera-eabi/6.2.0/../../../../arm-altera-eabi/lib\libc.a(lib_a-mallocr.o)
 .ARM.attributes
                0x00000f92       0x30 c:/intelfpga/18.1/embedded/host_tools/mentor/gnu/arm/baremetal/bin/../lib/gcc/arm-altera-eabi/6.2.0/../../../../arm-altera-eabi/lib\libc.a(lib_a-mbtowc_r.o)
 .ARM.attributes
                0x00000fc2       0x30 c:/intelfpga/18.1/embedded/host_tools/mentor/gnu/arm/baremetal/bin/../lib/gcc/arm-altera-eabi/6.2.0/../../../../arm-altera-eabi/lib\libc.a(lib_a-memcpy-stub.o)
 .ARM.attributes
                0x00000ff2       0x30 c:/intelfpga/18.1/embedded/host_tools/mentor/gnu/arm/baremetal/bin/../lib/gcc/arm-altera-eabi/6.2.0/../../../../arm-altera-eabi/lib\libc.a(lib_a-memmove.o)
 .ARM.attributes
                0x00001022       0x30 c:/intelfpga/18.1/embedded/host_tools/mentor/gnu/arm/baremetal/bin/../lib/gcc/arm-altera-eabi/6.2.0/../../../../arm-altera-eabi/lib\libc.a(lib_a-memset.o)
 .ARM.attributes
                0x00001052       0x30 c:/intelfpga/18.1/embedded/host_tools/mentor/gnu/arm/baremetal/bin/../lib/gcc/arm-altera-eabi/6.2.0/../../../../arm-altera-eabi/lib\libc.a(lib_a-mktime.o)
 .ARM.attributes
                0x00001082       0x30 c:/intelfpga/18.1/embedded/host_tools/mentor/gnu/arm/baremetal/bin/../lib/gcc/arm-altera-eabi/6.2.0/../../../../arm-altera-eabi/lib\libc.a(lib_a-mlock.o)
 .ARM.attributes
                0x000010b2       0x30 c:/intelfpga/18.1/embedded/host_tools/mentor/gnu/arm/baremetal/bin/../lib/gcc/arm-altera-eabi/6.2.0/../../../../arm-altera-eabi/lib\libc.a(lib_a-month_lengths.o)
 .ARM.attributes
                0x000010e2       0x30 c:/intelfpga/18.1/embedded/host_tools/mentor/gnu/arm/baremetal/bin/../lib/gcc/arm-altera-eabi/6.2.0/../../../../arm-altera-eabi/lib\libc.a(lib_a-printf.o)
 .ARM.attributes
                0x00001112       0x30 c:/intelfpga/18.1/embedded/host_tools/mentor/gnu/arm/baremetal/bin/../lib/gcc/arm-altera-eabi/6.2.0/../../../../arm-altera-eabi/lib\libc.a(lib_a-putchar.o)
 .ARM.attributes
                0x00001142       0x30 c:/intelfpga/18.1/embedded/host_tools/mentor/gnu/arm/baremetal/bin/../lib/gcc/arm-altera-eabi/6.2.0/../../../../arm-altera-eabi/lib\libc.a(lib_a-puts.o)
 .ARM.attributes
                0x00001172       0x30 c:/intelfpga/18.1/embedded/host_tools/mentor/gnu/arm/baremetal/bin/../lib/gcc/arm-altera-eabi/6.2.0/../../../../arm-altera-eabi/lib\libc.a(lib_a-rand.o)
 .ARM.attributes
                0x000011a2       0x30 c:/intelfpga/18.1/embedded/host_tools/mentor/gnu/arm/baremetal/bin/../lib/gcc/arm-altera-eabi/6.2.0/../../../../arm-altera-eabi/lib\libc.a(lib_a-refill.o)
 .ARM.attributes
                0x000011d2       0x30 c:/intelfpga/18.1/embedded/host_tools/mentor/gnu/arm/baremetal/bin/../lib/gcc/arm-altera-eabi/6.2.0/../../../../arm-altera-eabi/lib\libc.a(lib_a-rewind.o)
 .ARM.attributes
                0x00001202       0x30 c:/intelfpga/18.1/embedded/host_tools/mentor/gnu/arm/baremetal/bin/../lib/gcc/arm-altera-eabi/6.2.0/../../../../arm-altera-eabi/lib\libc.a(lib_a-rget.o)
 .ARM.attributes
                0x00001232       0x30 c:/intelfpga/18.1/embedded/host_tools/mentor/gnu/arm/baremetal/bin/../lib/gcc/arm-altera-eabi/6.2.0/../../../../arm-altera-eabi/lib\libc.a(lib_a-setvbuf.o)
 .ARM.attributes
                0x00001262       0x30 c:/intelfpga/18.1/embedded/host_tools/mentor/gnu/arm/baremetal/bin/../lib/gcc/arm-altera-eabi/6.2.0/../../../../arm-altera-eabi/lib\libc.a(lib_a-sprintf.o)
 .ARM.attributes
                0x00001292       0x30 c:/intelfpga/18.1/embedded/host_tools/mentor/gnu/arm/baremetal/bin/../lib/gcc/arm-altera-eabi/6.2.0/../../../../arm-altera-eabi/lib\libc.a(lib_a-stdio.o)
 .ARM.attributes
                0x000012c2       0x30 c:/intelfpga/18.1/embedded/host_tools/mentor/gnu/arm/baremetal/bin/../lib/gcc/arm-altera-eabi/6.2.0/../../../../arm-altera-eabi/lib\libc.a(lib_a-stpcpy.o)
 .ARM.attributes
                0x000012f2       0x30 c:/intelfpga/18.1/embedded/host_tools/mentor/gnu/arm/baremetal/bin/../lib/gcc/arm-altera-eabi/6.2.0/../../../../arm-altera-eabi/lib\libc.a(lib_a-strcasecmp.o)
 .ARM.attributes
                0x00001322       0x16 c:/intelfpga/18.1/embedded/host_tools/mentor/gnu/arm/baremetal/bin/../lib/gcc/arm-altera-eabi/6.2.0/../../../../arm-altera-eabi/lib\libc.a(lib_a-strcmp.o)
 .ARM.attributes
                0x00001338       0x30 c:/intelfpga/18.1/embedded/host_tools/mentor/gnu/arm/baremetal/bin/../lib/gcc/arm-altera-eabi/6.2.0/../../../../arm-altera-eabi/lib\libc.a(lib_a-strcpy.o)
 .ARM.attributes
                0x00001368       0x30 c:/intelfpga/18.1/embedded/host_tools/mentor/gnu/arm/baremetal/bin/../lib/gcc/arm-altera-eabi/6.2.0/../../../../arm-altera-eabi/lib\libc.a(lib_a-strlen-stub.o)
 .ARM.attributes
                0x00001398       0x30 c:/intelfpga/18.1/embedded/host_tools/mentor/gnu/arm/baremetal/bin/../lib/gcc/arm-altera-eabi/6.2.0/../../../../arm-altera-eabi/lib\libc.a(lib_a-strncasecmp.o)
 .ARM.attributes
                0x000013c8       0x30 c:/intelfpga/18.1/embedded/host_tools/mentor/gnu/arm/baremetal/bin/../lib/gcc/arm-altera-eabi/6.2.0/../../../../arm-altera-eabi/lib\libc.a(lib_a-strncat.o)
 .ARM.attributes
                0x000013f8       0x30 c:/intelfpga/18.1/embedded/host_tools/mentor/gnu/arm/baremetal/bin/../lib/gcc/arm-altera-eabi/6.2.0/../../../../arm-altera-eabi/lib\libc.a(lib_a-strncmp.o)
 .ARM.attributes
                0x00001428       0x30 c:/intelfpga/18.1/embedded/host_tools/mentor/gnu/arm/baremetal/bin/../lib/gcc/arm-altera-eabi/6.2.0/../../../../arm-altera-eabi/lib\libc.a(lib_a-strncpy.o)
 .ARM.attributes
                0x00001458       0x30 c:/intelfpga/18.1/embedded/host_tools/mentor/gnu/arm/baremetal/bin/../lib/gcc/arm-altera-eabi/6.2.0/../../../../arm-altera-eabi/lib\libc.a(lib_a-strrchr.o)
 .ARM.attributes
                0x00001488       0x30 c:/intelfpga/18.1/embedded/host_tools/mentor/gnu/arm/baremetal/bin/../lib/gcc/arm-altera-eabi/6.2.0/../../../../arm-altera-eabi/lib\libc.a(lib_a-strstr.o)
 .ARM.attributes
                0x000014b8       0x30 c:/intelfpga/18.1/embedded/host_tools/mentor/gnu/arm/baremetal/bin/../lib/gcc/arm-altera-eabi/6.2.0/../../../../arm-altera-eabi/lib\libc.a(lib_a-strtol.o)
 .ARM.attributes
                0x000014e8       0x30 c:/intelfpga/18.1/embedded/host_tools/mentor/gnu/arm/baremetal/bin/../lib/gcc/arm-altera-eabi/6.2.0/../../../../arm-altera-eabi/lib\libc.a(lib_a-strtoll.o)
 .ARM.attributes
                0x00001518       0x30 c:/intelfpga/18.1/embedded/host_tools/mentor/gnu/arm/baremetal/bin/../lib/gcc/arm-altera-eabi/6.2.0/../../../../arm-altera-eabi/lib\libc.a(lib_a-strtoul.o)
 .ARM.attributes
                0x00001548       0x30 c:/intelfpga/18.1/embedded/host_tools/mentor/gnu/arm/baremetal/bin/../lib/gcc/arm-altera-eabi/6.2.0/../../../../arm-altera-eabi/lib\libc.a(lib_a-strtoull.o)
 .ARM.attributes
                0x00001578       0x30 c:/intelfpga/18.1/embedded/host_tools/mentor/gnu/arm/baremetal/bin/../lib/gcc/arm-altera-eabi/6.2.0/../../../../arm-altera-eabi/lib\libc.a(lib_a-svfprintf.o)
 .ARM.attributes
                0x000015a8       0x30 c:/intelfpga/18.1/embedded/host_tools/mentor/gnu/arm/baremetal/bin/../lib/gcc/arm-altera-eabi/6.2.0/../../../../arm-altera-eabi/lib\libc.a(lib_a-sysclose.o)
 .ARM.attributes
                0x000015d8       0x30 c:/intelfpga/18.1/embedded/host_tools/mentor/gnu/arm/baremetal/bin/../lib/gcc/arm-altera-eabi/6.2.0/../../../../arm-altera-eabi/lib\libc.a(lib_a-sysstat.o)
 .ARM.attributes
                0x00001608       0x30 c:/intelfpga/18.1/embedded/host_tools/mentor/gnu/arm/baremetal/bin/../lib/gcc/arm-altera-eabi/6.2.0/../../../../arm-altera-eabi/lib\libc.a(lib_a-tzcalc_limits.o)
 .ARM.attributes
                0x00001638       0x30 c:/intelfpga/18.1/embedded/host_tools/mentor/gnu/arm/baremetal/bin/../lib/gcc/arm-altera-eabi/6.2.0/../../../../arm-altera-eabi/lib\libc.a(lib_a-tzlock.o)
 .ARM.attributes
                0x00001668       0x30 c:/intelfpga/18.1/embedded/host_tools/mentor/gnu/arm/baremetal/bin/../lib/gcc/arm-altera-eabi/6.2.0/../../../../arm-altera-eabi/lib\libc.a(lib_a-tzset.o)
 .ARM.attributes
                0x00001698       0x30 c:/intelfpga/18.1/embedded/host_tools/mentor/gnu/arm/baremetal/bin/../lib/gcc/arm-altera-eabi/6.2.0/../../../../arm-altera-eabi/lib\libc.a(lib_a-tzset_r.o)
 .ARM.attributes
                0x000016c8       0x30 c:/intelfpga/18.1/embedded/host_tools/mentor/gnu/arm/baremetal/bin/../lib/gcc/arm-altera-eabi/6.2.0/../../../../arm-altera-eabi/lib\libc.a(lib_a-tzvars.o)
 .ARM.attributes
                0x000016f8       0x30 c:/intelfpga/18.1/embedded/host_tools/mentor/gnu/arm/baremetal/bin/../lib/gcc/arm-altera-eabi/6.2.0/../../../../arm-altera-eabi/lib\libc.a(lib_a-ungetc.o)
 .ARM.attributes
                0x00001728       0x30 c:/intelfpga/18.1/embedded/host_tools/mentor/gnu/arm/baremetal/bin/../lib/gcc/arm-altera-eabi/6.2.0/../../../../arm-altera-eabi/lib\libc.a(lib_a-vfprintf.o)
 .ARM.attributes
                0x00001758       0x30 c:/intelfpga/18.1/embedded/host_tools/mentor/gnu/arm/baremetal/bin/../lib/gcc/arm-altera-eabi/6.2.0/../../../../arm-altera-eabi/lib\libc.a(lib_a-vfscanf.o)
 .ARM.attributes
                0x00001788       0x30 c:/intelfpga/18.1/embedded/host_tools/mentor/gnu/arm/baremetal/bin/../lib/gcc/arm-altera-eabi/6.2.0/../../../../arm-altera-eabi/lib\libc.a(lib_a-vsnprintf.o)
 .ARM.attributes
                0x000017b8       0x30 c:/intelfpga/18.1/embedded/host_tools/mentor/gnu/arm/baremetal/bin/../lib/gcc/arm-altera-eabi/6.2.0/../../../../arm-altera-eabi/lib\libc.a(lib_a-wbuf.o)
 .ARM.attributes
                0x000017e8       0x30 c:/intelfpga/18.1/embedded/host_tools/mentor/gnu/arm/baremetal/bin/../lib/gcc/arm-altera-eabi/6.2.0/../../../../arm-altera-eabi/lib\libc.a(lib_a-wctomb_r.o)
 .ARM.attributes
                0x00001818       0x30 c:/intelfpga/18.1/embedded/host_tools/mentor/gnu/arm/baremetal/bin/../lib/gcc/arm-altera-eabi/6.2.0/../../../../arm-altera-eabi/lib\libc.a(lib_a-wsetup.o)
 .ARM.attributes
                0x00001848       0x30 c:/intelfpga/18.1/embedded/host_tools/mentor/gnu/arm/baremetal/bin/../lib/gcc/arm-altera-eabi/6.2.0/../../../../arm-altera-eabi/lib\libc.a(lib_a-__call_atexit.o)
 .ARM.attributes
                0x00001878       0x30 c:/intelfpga/18.1/embedded/host_tools/mentor/gnu/arm/baremetal/bin/../lib/gcc/arm-altera-eabi/6.2.0/../../../../arm-altera-eabi/lib\libc.a(lib_a-atexit.o)
 .ARM.attributes
                0x000018a8       0x30 c:/intelfpga/18.1/embedded/host_tools/mentor/gnu/arm/baremetal/bin/../lib/gcc/arm-altera-eabi/6.2.0/../../../../arm-altera-eabi/lib\libc.a(lib_a-ctype_.o)
 .ARM.attributes
                0x000018d8       0x30 c:/intelfpga/18.1/embedded/host_tools/mentor/gnu/arm/baremetal/bin/../lib/gcc/arm-altera-eabi/6.2.0/../../../../arm-altera-eabi/lib\libc.a(lib_a-div.o)
 .ARM.attributes
                0x00001908       0x30 c:/intelfpga/18.1/embedded/host_tools/mentor/gnu/arm/baremetal/bin/../lib/gcc/arm-altera-eabi/6.2.0/../../../../arm-altera-eabi/lib\libc.a(lib_a-dtoa.o)
 .ARM.attributes
                0x00001938       0x30 c:/intelfpga/18.1/embedded/host_tools/mentor/gnu/arm/baremetal/bin/../lib/gcc/arm-altera-eabi/6.2.0/../../../../arm-altera-eabi/lib\libc.a(lib_a-fini.o)
 .ARM.attributes
                0x00001968       0x30 c:/intelfpga/18.1/embedded/host_tools/mentor/gnu/arm/baremetal/bin/../lib/gcc/arm-altera-eabi/6.2.0/../../../../arm-altera-eabi/lib\libc.a(lib_a-flags.o)
 .ARM.attributes
                0x00001998       0x30 c:/intelfpga/18.1/embedded/host_tools/mentor/gnu/arm/baremetal/bin/../lib/gcc/arm-altera-eabi/6.2.0/../../../../arm-altera-eabi/lib\libc.a(lib_a-fvwrite.o)
 .ARM.attributes
                0x000019c8       0x30 c:/intelfpga/18.1/embedded/host_tools/mentor/gnu/arm/baremetal/bin/../lib/gcc/arm-altera-eabi/6.2.0/../../../../arm-altera-eabi/lib\libc.a(lib_a-getenv_r.o)
 .ARM.attributes
                0x000019f8       0x30 c:/intelfpga/18.1/embedded/host_tools/mentor/gnu/arm/baremetal/bin/../lib/gcc/arm-altera-eabi/6.2.0/../../../../arm-altera-eabi/lib\libc.a(lib_a-gettzinfo.o)
 .ARM.attributes
                0x00001a28       0x30 c:/intelfpga/18.1/embedded/host_tools/mentor/gnu/arm/baremetal/bin/../lib/gcc/arm-altera-eabi/6.2.0/../../../../arm-altera-eabi/lib\libc.a(lib_a-gmtime_r.o)
 .ARM.attributes
                0x00001a58       0x30 c:/intelfpga/18.1/embedded/host_tools/mentor/gnu/arm/baremetal/bin/../lib/gcc/arm-altera-eabi/6.2.0/../../../../arm-altera-eabi/lib\libc.a(lib_a-iswspace.o)
 .ARM.attributes
                0x00001a88       0x30 c:/intelfpga/18.1/embedded/host_tools/mentor/gnu/arm/baremetal/bin/../lib/gcc/arm-altera-eabi/6.2.0/../../../../arm-altera-eabi/lib\libc.a(lib_a-localeconv.o)
 .ARM.attributes
                0x00001ab8       0x30 c:/intelfpga/18.1/embedded/host_tools/mentor/gnu/arm/baremetal/bin/../lib/gcc/arm-altera-eabi/6.2.0/../../../../arm-altera-eabi/lib\libc.a(lib_a-mbrtowc.o)
 .ARM.attributes
                0x00001ae8       0x30 c:/intelfpga/18.1/embedded/host_tools/mentor/gnu/arm/baremetal/bin/../lib/gcc/arm-altera-eabi/6.2.0/../../../../arm-altera-eabi/lib\libc.a(lib_a-memchr-stub.o)
 .ARM.attributes
                0x00001b18       0x30 c:/intelfpga/18.1/embedded/host_tools/mentor/gnu/arm/baremetal/bin/../lib/gcc/arm-altera-eabi/6.2.0/../../../../arm-altera-eabi/lib\libc.a(lib_a-memcmp.o)
 .ARM.attributes
                0x00001b48       0x30 c:/intelfpga/18.1/embedded/host_tools/mentor/gnu/arm/baremetal/bin/../lib/gcc/arm-altera-eabi/6.2.0/../../../../arm-altera-eabi/lib\libc.a(lib_a-mprec.o)
 .ARM.attributes
                0x00001b78       0x30 c:/intelfpga/18.1/embedded/host_tools/mentor/gnu/arm/baremetal/bin/../lib/gcc/arm-altera-eabi/6.2.0/../../../../arm-altera-eabi/lib\libc.a(lib_a-putc.o)
 .ARM.attributes
                0x00001ba8       0x30 c:/intelfpga/18.1/embedded/host_tools/mentor/gnu/arm/baremetal/bin/../lib/gcc/arm-altera-eabi/6.2.0/../../../../arm-altera-eabi/lib\libc.a(lib_a-reallocr.o)
 .ARM.attributes
                0x00001bd8       0x30 c:/intelfpga/18.1/embedded/host_tools/mentor/gnu/arm/baremetal/bin/../lib/gcc/arm-altera-eabi/6.2.0/../../../../arm-altera-eabi/lib\libc.a(lib_a-sccl.o)
 .ARM.attributes
                0x00001c08       0x30 c:/intelfpga/18.1/embedded/host_tools/mentor/gnu/arm/baremetal/bin/../lib/gcc/arm-altera-eabi/6.2.0/../../../../arm-altera-eabi/lib\libc.a(lib_a-sf_nan.o)
 .ARM.attributes
                0x00001c38       0x30 c:/intelfpga/18.1/embedded/host_tools/mentor/gnu/arm/baremetal/bin/../lib/gcc/arm-altera-eabi/6.2.0/../../../../arm-altera-eabi/lib\libc.a(lib_a-siscanf.o)
 .ARM.attributes
                0x00001c68       0x30 c:/intelfpga/18.1/embedded/host_tools/mentor/gnu/arm/baremetal/bin/../lib/gcc/arm-altera-eabi/6.2.0/../../../../arm-altera-eabi/lib\libc.a(lib_a-strchr.o)
 .ARM.attributes
                0x00001c98       0x30 c:/intelfpga/18.1/embedded/host_tools/mentor/gnu/arm/baremetal/bin/../lib/gcc/arm-altera-eabi/6.2.0/../../../../arm-altera-eabi/lib\libc.a(lib_a-strtod.o)
 .ARM.attributes
                0x00001cc8       0x30 c:/intelfpga/18.1/embedded/host_tools/mentor/gnu/arm/baremetal/bin/../lib/gcc/arm-altera-eabi/6.2.0/../../../../arm-altera-eabi/lib\libc.a(lib_a-svfiprintf.o)
 .ARM.attributes
                0x00001cf8       0x30 c:/intelfpga/18.1/embedded/host_tools/mentor/gnu/arm/baremetal/bin/../lib/gcc/arm-altera-eabi/6.2.0/../../../../arm-altera-eabi/lib\libc.a(lib_a-svfiscanf.o)
 .ARM.attributes
                0x00001d28       0x30 c:/intelfpga/18.1/embedded/host_tools/mentor/gnu/arm/baremetal/bin/../lib/gcc/arm-altera-eabi/6.2.0/../../../../arm-altera-eabi/lib\libc.a(lib_a-vfiprintf.o)
 .ARM.attributes
                0x00001d58       0x30 c:/intelfpga/18.1/embedded/host_tools/mentor/gnu/arm/baremetal/bin/../lib/gcc/arm-altera-eabi/6.2.0/../../../../arm-altera-eabi/lib\libc.a(lib_a-__atexit.o)
 .ARM.attributes
                0x00001d88       0x30 c:/intelfpga/18.1/embedded/host_tools/mentor/gnu/arm/baremetal/bin/../lib/gcc/arm-altera-eabi/6.2.0/../../../../arm-altera-eabi/lib\libc.a(lib_a-environ.o)
 .ARM.attributes
                0x00001db8       0x30 c:/intelfpga/18.1/embedded/host_tools/mentor/gnu/arm/baremetal/bin/../lib/gcc/arm-altera-eabi/6.2.0/../../../../arm-altera-eabi/lib\libc.a(lib_a-envlock.o)
 .ARM.attributes
                0x00001de8       0x30 c:/intelfpga/18.1/embedded/host_tools/mentor/gnu/arm/baremetal/bin/../lib/gcc/arm-altera-eabi/6.2.0/../../../../arm-altera-eabi/lib\libc.a(lib_a-fputwc.o)
 .ARM.attributes
                0x00001e18       0x30 c:/intelfpga/18.1/embedded/host_tools/mentor/gnu/arm/baremetal/bin/../lib/gcc/arm-altera-eabi/6.2.0/../../../../arm-altera-eabi/lib\libc.a(lib_a-gdtoa-gethex.o)
 .ARM.attributes
                0x00001e48       0x30 c:/intelfpga/18.1/embedded/host_tools/mentor/gnu/arm/baremetal/bin/../lib/gcc/arm-altera-eabi/6.2.0/../../../../arm-altera-eabi/lib\libc.a(lib_a-gdtoa-hexnan.o)
 .ARM.attributes
                0x00001e78       0x30 c:/intelfpga/18.1/embedded/host_tools/mentor/gnu/arm/baremetal/bin/../lib/gcc/arm-altera-eabi/6.2.0/../../../../arm-altera-eabi/lib\libc.a(lib_a-wcrtomb.o)
 .ARM.attributes
                0x00001ea8       0x30 c:/intelfpga/18.1/embedded/host_tools/mentor/gnu/arm/baremetal/bin/../lib/gcc/arm-altera-eabi/6.2.0/../../../../arm-altera-eabi/lib\libm.a(lib_a-w_sqrt.o)
 .ARM.attributes
                0x00001ed8       0x30 c:/intelfpga/18.1/embedded/host_tools/mentor/gnu/arm/baremetal/bin/../lib/gcc/arm-altera-eabi/6.2.0/../../../../arm-altera-eabi/lib\libm.a(lib_a-e_sqrt.o)
 .ARM.attributes
                0x00001f08       0x30 c:/intelfpga/18.1/embedded/host_tools/mentor/gnu/arm/baremetal/bin/../lib/gcc/arm-altera-eabi/6.2.0/../../../../arm-altera-eabi/lib\libm.a(lib_a-s_lib_ver.o)
 .ARM.attributes
                0x00001f38       0x30 c:/intelfpga/18.1/embedded/host_tools/mentor/gnu/arm/baremetal/bin/../lib/gcc/arm-altera-eabi/6.2.0/../../../../arm-altera-eabi/lib\libm.a(lib_a-s_matherr.o)
 .ARM.attributes
                0x00001f68       0x18 c:/intelfpga/18.1/embedded/host_tools/mentor/gnu/arm/baremetal/bin/../lib/gcc/arm-altera-eabi/6.2.0\libgcc.a(_arm_addsubdf3.o)
 .ARM.attributes
                0x00001f80       0x18 c:/intelfpga/18.1/embedded/host_tools/mentor/gnu/arm/baremetal/bin/../lib/gcc/arm-altera-eabi/6.2.0\libgcc.a(_arm_muldivdf3.o)
 .ARM.attributes
                0x00001f98       0x18 c:/intelfpga/18.1/embedded/host_tools/mentor/gnu/arm/baremetal/bin/../lib/gcc/arm-altera-eabi/6.2.0\libgcc.a(_arm_cmpdf2.o)
 .ARM.attributes
                0x00001fb0       0x18 c:/intelfpga/18.1/embedded/host_tools/mentor/gnu/arm/baremetal/bin/../lib/gcc/arm-altera-eabi/6.2.0\libgcc.a(_arm_unorddf2.o)
 .ARM.attributes
                0x00001fc8       0x18 c:/intelfpga/18.1/embedded/host_tools/mentor/gnu/arm/baremetal/bin/../lib/gcc/arm-altera-eabi/6.2.0\libgcc.a(_arm_fixdfsi.o)
 .ARM.attributes
                0x00001fe0       0x18 c:/intelfpga/18.1/embedded/host_tools/mentor/gnu/arm/baremetal/bin/../lib/gcc/arm-altera-eabi/6.2.0\libgcc.a(_arm_fixunsdfsi.o)
 .ARM.attributes
                0x00001ff8       0x18 c:/intelfpga/18.1/embedded/host_tools/mentor/gnu/arm/baremetal/bin/../lib/gcc/arm-altera-eabi/6.2.0\libgcc.a(_arm_truncdfsf2.o)
 .ARM.attributes
                0x00002010       0x18 c:/intelfpga/18.1/embedded/host_tools/mentor/gnu/arm/baremetal/bin/../lib/gcc/arm-altera-eabi/6.2.0\libgcc.a(_arm_cmpsf2.o)
 .ARM.attributes
                0x00002028       0x30 c:/intelfpga/18.1/embedded/host_tools/mentor/gnu/arm/baremetal/bin/../lib/gcc/arm-altera-eabi/6.2.0\libgcc.a(gthr-generic.o)
 .ARM.attributes
                0x00002058       0x30 c:/intelfpga/18.1/embedded/host_tools/mentor/gnu/arm/baremetal/bin/../lib/gcc/arm-altera-eabi/6.2.0/crtend.o
 .ARM.attributes
                0x00002088       0x18 c:/intelfpga/18.1/embedded/host_tools/mentor/gnu/arm/baremetal/bin/../lib/gcc/arm-altera-eabi/6.2.0/crtn.o

/DISCARD/
 *(.note.GNU-stack)
OUTPUT(Demo_100_SMP_DE0NANOSOC_A9_GCC.axf elf32-littlearm)
